	.file	"kaleidoscope_main.cpp"
	.text
.Ltext0:
	.cfi_sections	.debug_frame
	.section	.text$_Z7fprintfP6_iobufPKcz,"x"
	.linkonce discard
	.globl	_Z7fprintfP6_iobufPKcz
	.def	_Z7fprintfP6_iobufPKcz;	.scl	2;	.type	32;	.endef
	.seh_proc	_Z7fprintfP6_iobufPKcz
_Z7fprintfP6_iobufPKcz:
.LFB7:
	.file 1 "E:/mingw64/x86_64-w64-mingw32/include/stdio.h"
	.loc 1 286 0
	.cfi_startproc
	pushq	%rbp
	.seh_pushreg	%rbp
	.cfi_def_cfa_offset 16
	.cfi_offset 6, -16
	pushq	%rbx
	.seh_pushreg	%rbx
	.cfi_def_cfa_offset 24
	.cfi_offset 3, -24
	subq	$56, %rsp
	.seh_stackalloc	56
	.cfi_def_cfa_offset 80
	leaq	128(%rsp), %rbp
	.seh_setframe	%rbp, 128
	.cfi_def_cfa 6, -48
	.seh_endprologue
	movq	%rcx, -48(%rbp)
	movq	%rdx, -40(%rbp)
	movq	%r8, -32(%rbp)
	movq	%r9, -24(%rbp)
	.loc 1 288 0
	leaq	-32(%rbp), %rax
	movq	%rax, -88(%rbp)
	.loc 1 289 0
	movq	-88(%rbp), %rdx
	movq	-40(%rbp), %rax
	movq	%rdx, %r8
	movq	%rax, %rdx
	movq	-48(%rbp), %rcx
	call	__mingw_vfprintf
	movl	%eax, %ebx
	.loc 1 291 0
	movl	%ebx, %eax
	.loc 1 292 0
	addq	$56, %rsp
	popq	%rbx
	.cfi_restore 3
	popq	%rbp
	.cfi_restore 6
	.cfi_def_cfa 7, -40
	ret
	.cfi_endproc
.LFE7:
	.seh_endproc
	.text
	.def	strtod;	.scl	3;	.type	32;	.endef
	.seh_proc	strtod
strtod:
.LFB45:
	.file 2 "E:/mingw64/x86_64-w64-mingw32/include/stdlib.h"
	.loc 2 406 0
	.cfi_startproc
	pushq	%rbp
	.seh_pushreg	%rbp
	.cfi_def_cfa_offset 16
	.cfi_offset 6, -16
	movq	%rsp, %rbp
	.seh_setframe	%rbp, 0
	.cfi_def_cfa_register 6
	subq	$32, %rsp
	.seh_stackalloc	32
	.seh_endprologue
	movq	%rcx, 16(%rbp)
	movq	%rdx, 24(%rbp)
	.loc 2 408 0
	movq	24(%rbp), %rax
	movq	%rax, %rdx
	movq	16(%rbp), %rcx
	call	__mingw_strtod
	movq	%xmm0, %rax
	.loc 2 409 0
	movq	%rax, %xmm0
	addq	$32, %rsp
	popq	%rbp
	.cfi_restore 6
	.cfi_def_cfa 7, 8
	ret
	.cfi_endproc
.LFE45:
	.seh_endproc
	.section .rdata,"dr"
_ZStL19piecewise_construct:
	.space 1
	.section	.text$_ZnwyPv,"x"
	.linkonce discard
	.globl	_ZnwyPv
	.def	_ZnwyPv;	.scl	2;	.type	32;	.endef
	.seh_proc	_ZnwyPv
_ZnwyPv:
.LFB510:
	.file 3 "E:/mingw64/lib/gcc/x86_64-w64-mingw32/7.2.0/include/c++/new"
	.loc 3 169 0
	.cfi_startproc
	pushq	%rbp
	.seh_pushreg	%rbp
	.cfi_def_cfa_offset 16
	.cfi_offset 6, -16
	movq	%rsp, %rbp
	.seh_setframe	%rbp, 0
	.cfi_def_cfa_register 6
	.seh_endprologue
	movq	%rcx, 16(%rbp)
	movq	%rdx, 24(%rbp)
	.loc 3 169 0
	movq	24(%rbp), %rax
	popq	%rbp
	.cfi_restore 6
	.cfi_def_cfa 7, 8
	ret
	.cfi_endproc
.LFE510:
	.seh_endproc
	.section	.text$_ZdlPvS_,"x"
	.linkonce discard
	.globl	_ZdlPvS_
	.def	_ZdlPvS_;	.scl	2;	.type	32;	.endef
	.seh_proc	_ZdlPvS_
_ZdlPvS_:
.LFB512:
	.loc 3 174 0
	.cfi_startproc
	pushq	%rbp
	.seh_pushreg	%rbp
	.cfi_def_cfa_offset 16
	.cfi_offset 6, -16
	movq	%rsp, %rbp
	.seh_setframe	%rbp, 0
	.cfi_def_cfa_register 6
	.seh_endprologue
	movq	%rcx, 16(%rbp)
	movq	%rdx, 24(%rbp)
	.loc 3 174 0
	nop
	popq	%rbp
	.cfi_restore 6
	.cfi_def_cfa 7, 8
	ret
	.cfi_endproc
.LFE512:
	.seh_endproc
.lcomm _ZL13IdentifierStr,32,32
.lcomm _ZL6NumVal,8,8
	.data
	.align 4
_ZZL6gettokvE8LastChar:
	.long	32
	.section .rdata,"dr"
.LC0:
	.ascii "\0"
.LC1:
	.ascii "def\0"
.LC2:
	.ascii "extern\0"
	.text
	.def	_ZL6gettokv;	.scl	3;	.type	32;	.endef
	.seh_proc	_ZL6gettokv
_ZL6gettokv:
.LFB1019:
	.file 4 "include/lexer/lexer.cxx"
	.loc 4 31 0
	.cfi_startproc
	.cfi_personality 0x9b,.LDFCM0
	.cfi_lsda 0x1c,.LLSDA1019
	pushq	%rbp
	.seh_pushreg	%rbp
	.cfi_def_cfa_offset 16
	.cfi_offset 6, -16
	pushq	%rbx
	.seh_pushreg	%rbx
	.cfi_def_cfa_offset 24
	.cfi_offset 3, -24
	subq	$88, %rsp
	.seh_stackalloc	88
	.cfi_def_cfa_offset 112
	leaq	128(%rsp), %rbp
	.seh_setframe	%rbp, 128
	.cfi_def_cfa 6, -16
	.seh_endprologue
	.loc 4 33 0
	leaq	.LC0(%rip), %rdx
	leaq	_ZL13IdentifierStr(%rip), %rcx
.LEHB0:
	call	_ZNSt7__cxx1112basic_stringIcSt11char_traitsIcESaIcEEaSEPKc
.L10:
	.loc 4 36 0
	movl	_ZZL6gettokvE8LastChar(%rip), %eax
	movl	%eax, %ecx
	movq	__imp_isspace(%rip), %rax
	call	*%rax
.LVL0:
	testl	%eax, %eax
	je	.L9
	.loc 4 37 0
	call	getchar
	movl	%eax, _ZZL6gettokvE8LastChar(%rip)
	.loc 4 36 0
	jmp	.L10
.L9:
	.loc 4 39 0
	movl	_ZZL6gettokvE8LastChar(%rip), %eax
	movl	%eax, %ecx
	movq	__imp_isalpha(%rip), %rax
	call	*%rax
.LVL1:
	testl	%eax, %eax
	je	.L11
.L13:
	.loc 4 46 0
	movl	_ZZL6gettokvE8LastChar(%rip), %eax
	movsbl	%al, %eax
	movl	%eax, %edx
	leaq	_ZL13IdentifierStr(%rip), %rcx
	call	_ZNSt7__cxx1112basic_stringIcSt11char_traitsIcESaIcEEpLEc
	.loc 4 47 0
	call	getchar
.LEHE0:
	movl	%eax, _ZZL6gettokvE8LastChar(%rip)
	movl	_ZZL6gettokvE8LastChar(%rip), %eax
	movl	%eax, %ecx
	movq	__imp_isalnum(%rip), %rax
	call	*%rax
.LVL2:
	testl	%eax, %eax
	setne	%al
	testb	%al, %al
	je	.L12
	.loc 4 45 0
	jmp	.L13
.L12:
	.loc 4 49 0
	leaq	.LC1(%rip), %rdx
	leaq	_ZL13IdentifierStr(%rip), %rcx
	call	_ZSteqIcSt11char_traitsIcESaIcEEbRKNSt7__cxx1112basic_stringIT_T0_T1_EEPKS5_
	testb	%al, %al
	je	.L14
	.loc 4 50 0
	movl	$-2, %ebx
	jmp	.L15
.L14:
	.loc 4 51 0
	leaq	.LC2(%rip), %rdx
	leaq	_ZL13IdentifierStr(%rip), %rcx
	call	_ZSteqIcSt11char_traitsIcESaIcEEbRKNSt7__cxx1112basic_stringIT_T0_T1_EEPKS5_
	testb	%al, %al
	je	.L16
	.loc 4 52 0
	movl	$-3, %ebx
	jmp	.L15
.L16:
	.loc 4 53 0
	movl	$-4, %ebx
	jmp	.L15
.L11:
.LBB2:
	.loc 4 56 0
	movl	_ZZL6gettokvE8LastChar(%rip), %eax
	subl	$48, %eax
	cmpl	$9, %eax
	jbe	.L17
	.loc 4 56 0 is_stmt 0 discriminator 3
	movl	_ZZL6gettokvE8LastChar(%rip), %eax
	cmpl	$46, %eax
	jne	.L18
.L17:
.LBB3:
	.loc 4 59 0 is_stmt 1
	leaq	-96(%rbp), %rax
	movq	%rax, %rcx
	call	_ZNSt7__cxx1112basic_stringIcSt11char_traitsIcESaIcEEC1Ev
.L23:
	.loc 4 62 0
	movl	_ZZL6gettokvE8LastChar(%rip), %eax
	movsbl	%al, %edx
	leaq	-96(%rbp), %rax
	movq	%rax, %rcx
.LEHB1:
	call	_ZNSt7__cxx1112basic_stringIcSt11char_traitsIcESaIcEEpLEc
	.loc 4 63 0
	call	getchar
.LEHE1:
	movl	%eax, _ZZL6gettokvE8LastChar(%rip)
	.loc 4 64 0
	movl	_ZZL6gettokvE8LastChar(%rip), %eax
	subl	$48, %eax
	cmpl	$9, %eax
	ja	.L19
	.loc 4 64 0 is_stmt 0 discriminator 1
	movl	$0, %eax
	jmp	.L20
.L19:
	.loc 4 64 0 discriminator 2
	movl	$1, %eax
.L20:
	.loc 4 64 0 discriminator 4
	testb	%al, %al
	je	.L23
	.loc 4 64 0 discriminator 5
	movl	_ZZL6gettokvE8LastChar(%rip), %eax
	cmpl	$46, %eax
	jne	.L22
	.loc 4 60 0 is_stmt 1
	jmp	.L23
.L22:
	.loc 4 65 0
	leaq	-96(%rbp), %rax
	movq	%rax, %rcx
	call	_ZNKSt7__cxx1112basic_stringIcSt11char_traitsIcESaIcEE5c_strEv
	movl	$0, %edx
	movq	%rax, %rcx
	call	strtod
	movq	%xmm0, %rax
	movq	%rax, _ZL6NumVal(%rip)
	.loc 4 66 0
	movl	$-5, %ebx
	.loc 4 59 0
	leaq	-96(%rbp), %rax
	movq	%rax, %rcx
	call	_ZNSt7__cxx1112basic_stringIcSt11char_traitsIcESaIcEED1Ev
	jmp	.L15
.L18:
.LBE3:
.LBE2:
	.loc 4 69 0
	movl	_ZZL6gettokvE8LastChar(%rip), %eax
	cmpl	$35, %eax
	jne	.L24
.L26:
.LEHB2:
	.loc 4 73 0
	call	getchar
	movl	%eax, _ZZL6gettokvE8LastChar(%rip)
	.loc 4 74 0
	movl	_ZZL6gettokvE8LastChar(%rip), %eax
	.loc 4 74 0
	cmpl	$-1, %eax
	je	.L25
	.loc 4 74 0 is_stmt 0 discriminator 1
	movl	_ZZL6gettokvE8LastChar(%rip), %eax
	cmpl	$10, %eax
	je	.L25
	.loc 4 74 0 discriminator 2
	movl	_ZZL6gettokvE8LastChar(%rip), %eax
	cmpl	$13, %eax
	je	.L25
	.loc 4 72 0 is_stmt 1
	jmp	.L26
.L25:
	.loc 4 76 0
	movl	_ZZL6gettokvE8LastChar(%rip), %eax
	cmpl	$-1, %eax
	je	.L24
	.loc 4 77 0
	call	_ZL6gettokv
	movl	%eax, %ebx
	jmp	.L15
.L24:
	.loc 4 80 0
	movl	_ZZL6gettokvE8LastChar(%rip), %eax
	cmpl	$-1, %eax
	jne	.L27
	.loc 4 81 0
	movl	$-1, %ebx
	jmp	.L15
.L27:
	.loc 4 84 0
	movl	_ZZL6gettokvE8LastChar(%rip), %eax
	movl	%eax, -52(%rbp)
	.loc 4 85 0
	call	getchar
	movl	%eax, _ZZL6gettokvE8LastChar(%rip)
	.loc 4 86 0
	movl	-52(%rbp), %ebx
.L15:
	movl	%ebx, %eax
	jmp	.L30
.L29:
	movq	%rax, %rbx
.LBB5:
.LBB4:
	.loc 4 59 0
	leaq	-96(%rbp), %rax
	movq	%rax, %rcx
	call	_ZNSt7__cxx1112basic_stringIcSt11char_traitsIcESaIcEED1Ev
	movq	%rbx, %rax
	movq	%rax, %rcx
	call	_Unwind_Resume
.LEHE2:
.L30:
.LBE4:
.LBE5:
	.loc 4 87 0
	addq	$88, %rsp
	popq	%rbx
	.cfi_restore 3
	popq	%rbp
	.cfi_restore 6
	.cfi_def_cfa 7, -72
	ret
	.cfi_endproc
.LFE1019:
	.def	__gxx_personality_seh0;	.scl	2;	.type	32;	.endef
	.seh_handler	__gxx_personality_seh0, @unwind, @except
	.seh_handlerdata
.LLSDA1019:
	.byte	0xff
	.byte	0xff
	.byte	0x1
	.uleb128 .LLSDACSE1019-.LLSDACSB1019
.LLSDACSB1019:
	.uleb128 .LEHB0-.LFB1019
	.uleb128 .LEHE0-.LEHB0
	.uleb128 0
	.uleb128 0
	.uleb128 .LEHB1-.LFB1019
	.uleb128 .LEHE1-.LEHB1
	.uleb128 .L29-.LFB1019
	.uleb128 0
	.uleb128 .LEHB2-.LFB1019
	.uleb128 .LEHE2-.LEHB2
	.uleb128 0
	.uleb128 0
.LLSDACSE1019:
	.text
	.seh_endproc
	.section .rdata,"dr"
	.align 4
_ZN9__gnu_cxxL21__default_lock_policyE:
	.long	2
_ZStL13allocator_arg:
	.space 1
_ZStL6ignore:
	.space 1
	.section	.text$_ZN7ExprASTD2Ev,"x"
	.linkonce discard
	.align 2
	.globl	_ZN7ExprASTD2Ev
	.def	_ZN7ExprASTD2Ev;	.scl	2;	.type	32;	.endef
	.seh_proc	_ZN7ExprASTD2Ev
_ZN7ExprASTD2Ev:
.LFB2180:
	.file 5 "include/ast/ast.cxx"
	.loc 5 13 0
	.cfi_startproc
	pushq	%rbp
	.seh_pushreg	%rbp
	.cfi_def_cfa_offset 16
	.cfi_offset 6, -16
	movq	%rsp, %rbp
	.seh_setframe	%rbp, 0
	.cfi_def_cfa_register 6
	.seh_endprologue
	movq	%rcx, 16(%rbp)
.LBB6:
	.loc 5 13 0
	leaq	16+_ZTV7ExprAST(%rip), %rdx
	movq	16(%rbp), %rax
	movq	%rdx, (%rax)
.LBE6:
	nop
	popq	%rbp
	.cfi_restore 6
	.cfi_def_cfa 7, 8
	ret
	.cfi_endproc
.LFE2180:
	.seh_endproc
	.section	.text$_ZN7ExprASTD1Ev,"x"
	.linkonce discard
	.align 2
	.globl	_ZN7ExprASTD1Ev
	.def	_ZN7ExprASTD1Ev;	.scl	2;	.type	32;	.endef
	.seh_proc	_ZN7ExprASTD1Ev
_ZN7ExprASTD1Ev:
.LFB2181:
	.loc 5 13 0
	.cfi_startproc
	pushq	%rbp
	.seh_pushreg	%rbp
	.cfi_def_cfa_offset 16
	.cfi_offset 6, -16
	movq	%rsp, %rbp
	.seh_setframe	%rbp, 0
	.cfi_def_cfa_register 6
	.seh_endprologue
	movq	%rcx, 16(%rbp)
.LBB7:
	.loc 5 13 0
	leaq	16+_ZTV7ExprAST(%rip), %rdx
	movq	16(%rbp), %rax
	movq	%rdx, (%rax)
.LBE7:
	nop
	popq	%rbp
	.cfi_restore 6
	.cfi_def_cfa 7, 8
	ret
	.cfi_endproc
.LFE2181:
	.seh_endproc
	.section	.text$_ZN7ExprASTD0Ev,"x"
	.linkonce discard
	.align 2
	.globl	_ZN7ExprASTD0Ev
	.def	_ZN7ExprASTD0Ev;	.scl	2;	.type	32;	.endef
	.seh_proc	_ZN7ExprASTD0Ev
_ZN7ExprASTD0Ev:
.LFB2182:
	.loc 5 13 0
	.cfi_startproc
	pushq	%rbp
	.seh_pushreg	%rbp
	.cfi_def_cfa_offset 16
	.cfi_offset 6, -16
	movq	%rsp, %rbp
	.seh_setframe	%rbp, 0
	.cfi_def_cfa_register 6
	subq	$32, %rsp
	.seh_stackalloc	32
	.seh_endprologue
	movq	%rcx, 16(%rbp)
	.loc 5 13 0
	movq	16(%rbp), %rcx
	call	_ZN7ExprASTD1Ev
	movl	$8, %edx
	movq	16(%rbp), %rcx
	call	_ZdlPvy
	nop
	addq	$32, %rsp
	popq	%rbp
	.cfi_restore 6
	.cfi_def_cfa 7, 8
	ret
	.cfi_endproc
.LFE2182:
	.seh_endproc
	.section	.text$_ZN7ExprASTC2Ev,"x"
	.linkonce discard
	.align 2
	.globl	_ZN7ExprASTC2Ev
	.def	_ZN7ExprASTC2Ev;	.scl	2;	.type	32;	.endef
	.seh_proc	_ZN7ExprASTC2Ev
_ZN7ExprASTC2Ev:
.LFB2185:
	.loc 5 10 0
	.cfi_startproc
	pushq	%rbp
	.seh_pushreg	%rbp
	.cfi_def_cfa_offset 16
	.cfi_offset 6, -16
	movq	%rsp, %rbp
	.seh_setframe	%rbp, 0
	.cfi_def_cfa_register 6
	.seh_endprologue
	movq	%rcx, 16(%rbp)
.LBB8:
	.loc 5 10 0
	leaq	16+_ZTV7ExprAST(%rip), %rdx
	movq	16(%rbp), %rax
	movq	%rdx, (%rax)
.LBE8:
	nop
	popq	%rbp
	.cfi_restore 6
	.cfi_def_cfa 7, 8
	ret
	.cfi_endproc
.LFE2185:
	.seh_endproc
	.section	.text$_ZN13NumberExprASTC1Ed,"x"
	.linkonce discard
	.align 2
	.globl	_ZN13NumberExprASTC1Ed
	.def	_ZN13NumberExprASTC1Ed;	.scl	2;	.type	32;	.endef
	.seh_proc	_ZN13NumberExprASTC1Ed
_ZN13NumberExprASTC1Ed:
.LFB2188:
	.loc 5 21 0
	.cfi_startproc
	pushq	%rbp
	.seh_pushreg	%rbp
	.cfi_def_cfa_offset 16
	.cfi_offset 6, -16
	movq	%rsp, %rbp
	.seh_setframe	%rbp, 0
	.cfi_def_cfa_register 6
	subq	$32, %rsp
	.seh_stackalloc	32
	.seh_endprologue
	movq	%rcx, 16(%rbp)
	movsd	%xmm1, 24(%rbp)
.LBB9:
	.loc 5 21 0
	movq	16(%rbp), %rax
	movq	%rax, %rcx
	call	_ZN7ExprASTC2Ev
	leaq	16+_ZTV13NumberExprAST(%rip), %rdx
	movq	16(%rbp), %rax
	movq	%rdx, (%rax)
	movq	16(%rbp), %rax
	movsd	24(%rbp), %xmm0
	movsd	%xmm0, 8(%rax)
.LBE9:
	nop
	addq	$32, %rsp
	popq	%rbp
	.cfi_restore 6
	.cfi_def_cfa 7, 8
	ret
	.cfi_endproc
.LFE2188:
	.seh_endproc
	.section	.text$_ZN15VariableExprASTC1ERKNSt7__cxx1112basic_stringIcSt11char_traitsIcESaIcEEE,"x"
	.linkonce discard
	.align 2
	.globl	_ZN15VariableExprASTC1ERKNSt7__cxx1112basic_stringIcSt11char_traitsIcESaIcEEE
	.def	_ZN15VariableExprASTC1ERKNSt7__cxx1112basic_stringIcSt11char_traitsIcESaIcEEE;	.scl	2;	.type	32;	.endef
	.seh_proc	_ZN15VariableExprASTC1ERKNSt7__cxx1112basic_stringIcSt11char_traitsIcESaIcEEE
_ZN15VariableExprASTC1ERKNSt7__cxx1112basic_stringIcSt11char_traitsIcESaIcEEE:
.LFB2191:
	.loc 5 30 0
	.cfi_startproc
	.cfi_personality 0x9b,.LDFCM0
	.cfi_lsda 0x1c,.LLSDA2191
	pushq	%rbp
	.seh_pushreg	%rbp
	.cfi_def_cfa_offset 16
	.cfi_offset 6, -16
	pushq	%rbx
	.seh_pushreg	%rbx
	.cfi_def_cfa_offset 24
	.cfi_offset 3, -24
	subq	$40, %rsp
	.seh_stackalloc	40
	.cfi_def_cfa_offset 64
	leaq	128(%rsp), %rbp
	.seh_setframe	%rbp, 128
	.cfi_def_cfa 6, -64
	.seh_endprologue
	movq	%rcx, -64(%rbp)
	movq	%rdx, -56(%rbp)
.LBB10:
	.loc 5 30 0
	movq	-64(%rbp), %rax
	movq	%rax, %rcx
	call	_ZN7ExprASTC2Ev
	leaq	16+_ZTV15VariableExprAST(%rip), %rdx
	movq	-64(%rbp), %rax
	movq	%rdx, (%rax)
	movq	-64(%rbp), %rax
	leaq	8(%rax), %rcx
	movq	-56(%rbp), %rax
	movq	%rax, %rdx
.LEHB3:
	call	_ZNSt7__cxx1112basic_stringIcSt11char_traitsIcESaIcEEC1ERKS4_
.LEHE3:
.LBE10:
	jmp	.L39
.L38:
	movq	%rax, %rbx
.LBB11:
	movq	-64(%rbp), %rax
	movq	%rax, %rcx
	call	_ZN7ExprASTD2Ev
	movq	%rbx, %rax
	movq	%rax, %rcx
.LEHB4:
	call	_Unwind_Resume
	nop
.LEHE4:
.L39:
.LBE11:
	addq	$40, %rsp
	popq	%rbx
	.cfi_restore 3
	popq	%rbp
	.cfi_restore 6
	.cfi_def_cfa 7, -24
	ret
	.cfi_endproc
.LFE2191:
	.seh_handler	__gxx_personality_seh0, @unwind, @except
	.seh_handlerdata
.LLSDA2191:
	.byte	0xff
	.byte	0xff
	.byte	0x1
	.uleb128 .LLSDACSE2191-.LLSDACSB2191
.LLSDACSB2191:
	.uleb128 .LEHB3-.LFB2191
	.uleb128 .LEHE3-.LEHB3
	.uleb128 .L38-.LFB2191
	.uleb128 0
	.uleb128 .LEHB4-.LFB2191
	.uleb128 .LEHE4-.LEHB4
	.uleb128 0
	.uleb128 0
.LLSDACSE2191:
	.section	.text$_ZN15VariableExprASTC1ERKNSt7__cxx1112basic_stringIcSt11char_traitsIcESaIcEEE,"x"
	.linkonce discard
	.seh_endproc
	.section	.text$_ZN13BinaryExprASTC1EcSt10unique_ptrI7ExprASTSt14default_deleteIS1_EES4_,"x"
	.linkonce discard
	.align 2
	.globl	_ZN13BinaryExprASTC1EcSt10unique_ptrI7ExprASTSt14default_deleteIS1_EES4_
	.def	_ZN13BinaryExprASTC1EcSt10unique_ptrI7ExprASTSt14default_deleteIS1_EES4_;	.scl	2;	.type	32;	.endef
	.seh_proc	_ZN13BinaryExprASTC1EcSt10unique_ptrI7ExprASTSt14default_deleteIS1_EES4_
_ZN13BinaryExprASTC1EcSt10unique_ptrI7ExprASTSt14default_deleteIS1_EES4_:
.LFB2194:
	.loc 5 40 0
	.cfi_startproc
	pushq	%rbp
	.seh_pushreg	%rbp
	.cfi_def_cfa_offset 16
	.cfi_offset 6, -16
	pushq	%rbx
	.seh_pushreg	%rbx
	.cfi_def_cfa_offset 24
	.cfi_offset 3, -24
	subq	$40, %rsp
	.seh_stackalloc	40
	.cfi_def_cfa_offset 64
	leaq	128(%rsp), %rbp
	.seh_setframe	%rbp, 128
	.cfi_def_cfa 6, -64
	.seh_endprologue
	movq	%rcx, -64(%rbp)
	movl	%edx, %eax
	movq	%r8, -48(%rbp)
	movq	%r9, -40(%rbp)
	movb	%al, -56(%rbp)
.LBB12:
	.loc 5 42 0
	movq	-64(%rbp), %rax
	movq	%rax, %rcx
	call	_ZN7ExprASTC2Ev
	leaq	16+_ZTV13BinaryExprAST(%rip), %rdx
	movq	-64(%rbp), %rax
	movq	%rdx, (%rax)
	movq	-64(%rbp), %rax
	movzbl	-56(%rbp), %edx
	movb	%dl, 8(%rax)
	movq	-64(%rbp), %rax
	leaq	16(%rax), %rbx
	movq	-48(%rbp), %rax
	movq	%rax, %rcx
	call	_ZSt4moveIRSt10unique_ptrI7ExprASTSt14default_deleteIS1_EEEONSt16remove_referenceIT_E4typeEOS7_
	movq	%rax, %rdx
	movq	%rbx, %rcx
	call	_ZNSt10unique_ptrI7ExprASTSt14default_deleteIS0_EEC1EOS3_
	movq	-64(%rbp), %rax
	leaq	24(%rax), %rbx
	movq	-40(%rbp), %rax
	movq	%rax, %rcx
	call	_ZSt4moveIRSt10unique_ptrI7ExprASTSt14default_deleteIS1_EEEONSt16remove_referenceIT_E4typeEOS7_
	movq	%rax, %rdx
	movq	%rbx, %rcx
	call	_ZNSt10unique_ptrI7ExprASTSt14default_deleteIS0_EEC1EOS3_
.LBE12:
	nop
	addq	$40, %rsp
	popq	%rbx
	.cfi_restore 3
	popq	%rbp
	.cfi_restore 6
	.cfi_def_cfa 7, -24
	ret
	.cfi_endproc
.LFE2194:
	.seh_endproc
	.section	.text$_ZN11CallExprASTC1ERKNSt7__cxx1112basic_stringIcSt11char_traitsIcESaIcEEESt6vectorISt10unique_ptrI7ExprASTSt14default_deleteISA_EESaISD_EE,"x"
	.linkonce discard
	.align 2
	.globl	_ZN11CallExprASTC1ERKNSt7__cxx1112basic_stringIcSt11char_traitsIcESaIcEEESt6vectorISt10unique_ptrI7ExprASTSt14default_deleteISA_EESaISD_EE
	.def	_ZN11CallExprASTC1ERKNSt7__cxx1112basic_stringIcSt11char_traitsIcESaIcEEESt6vectorISt10unique_ptrI7ExprASTSt14default_deleteISA_EESaISD_EE;	.scl	2;	.type	32;	.endef
	.seh_proc	_ZN11CallExprASTC1ERKNSt7__cxx1112basic_stringIcSt11char_traitsIcESaIcEEESt6vectorISt10unique_ptrI7ExprASTSt14default_deleteISA_EESaISD_EE
_ZN11CallExprASTC1ERKNSt7__cxx1112basic_stringIcSt11char_traitsIcESaIcEEESt6vectorISt10unique_ptrI7ExprASTSt14default_deleteISA_EESaISD_EE:
.LFB2197:
	.loc 5 52 0
	.cfi_startproc
	.cfi_personality 0x9b,.LDFCM0
	.cfi_lsda 0x1c,.LLSDA2197
	pushq	%rbp
	.seh_pushreg	%rbp
	.cfi_def_cfa_offset 16
	.cfi_offset 6, -16
	pushq	%rbx
	.seh_pushreg	%rbx
	.cfi_def_cfa_offset 24
	.cfi_offset 3, -24
	subq	$40, %rsp
	.seh_stackalloc	40
	.cfi_def_cfa_offset 64
	leaq	128(%rsp), %rbp
	.seh_setframe	%rbp, 128
	.cfi_def_cfa 6, -64
	.seh_endprologue
	movq	%rcx, -64(%rbp)
	movq	%rdx, -56(%rbp)
	movq	%r8, -48(%rbp)
.LBB13:
	.loc 5 54 0
	movq	-64(%rbp), %rax
	movq	%rax, %rcx
	call	_ZN7ExprASTC2Ev
	leaq	16+_ZTV11CallExprAST(%rip), %rdx
	movq	-64(%rbp), %rax
	movq	%rdx, (%rax)
	movq	-64(%rbp), %rax
	leaq	8(%rax), %rcx
	movq	-56(%rbp), %rax
	movq	%rax, %rdx
.LEHB5:
	call	_ZNSt7__cxx1112basic_stringIcSt11char_traitsIcESaIcEEC1ERKS4_
.LEHE5:
	.loc 5 54 0 is_stmt 0 discriminator 2
	movq	-64(%rbp), %rax
	leaq	40(%rax), %rbx
	movq	-48(%rbp), %rax
	movq	%rax, %rcx
	call	_ZSt4moveIRSt6vectorISt10unique_ptrI7ExprASTSt14default_deleteIS2_EESaIS5_EEEONSt16remove_referenceIT_E4typeEOSA_
	movq	%rax, %rdx
	movq	%rbx, %rcx
	call	_ZNSt6vectorISt10unique_ptrI7ExprASTSt14default_deleteIS1_EESaIS4_EEC1EOS6_
.LBE13:
	jmp	.L44
.L43:
	movq	%rax, %rbx
.LBB14:
	.loc 5 54 0
	movq	-64(%rbp), %rax
	movq	%rax, %rcx
	call	_ZN7ExprASTD2Ev
	movq	%rbx, %rax
	movq	%rax, %rcx
.LEHB6:
	call	_Unwind_Resume
	nop
.LEHE6:
.L44:
.LBE14:
	addq	$40, %rsp
	popq	%rbx
	.cfi_restore 3
	popq	%rbp
	.cfi_restore 6
	.cfi_def_cfa 7, -24
	ret
	.cfi_endproc
.LFE2197:
	.seh_handler	__gxx_personality_seh0, @unwind, @except
	.seh_handlerdata
.LLSDA2197:
	.byte	0xff
	.byte	0xff
	.byte	0x1
	.uleb128 .LLSDACSE2197-.LLSDACSB2197
.LLSDACSB2197:
	.uleb128 .LEHB5-.LFB2197
	.uleb128 .LEHE5-.LEHB5
	.uleb128 .L43-.LFB2197
	.uleb128 0
	.uleb128 .LEHB6-.LFB2197
	.uleb128 .LEHE6-.LEHB6
	.uleb128 0
	.uleb128 0
.LLSDACSE2197:
	.section	.text$_ZN11CallExprASTC1ERKNSt7__cxx1112basic_stringIcSt11char_traitsIcESaIcEEESt6vectorISt10unique_ptrI7ExprASTSt14default_deleteISA_EESaISD_EE,"x"
	.linkonce discard
	.seh_endproc
	.section	.text$_ZN12PrototypeASTC1ERKNSt7__cxx1112basic_stringIcSt11char_traitsIcESaIcEEESt6vectorIS5_SaIS5_EE,"x"
	.linkonce discard
	.align 2
	.globl	_ZN12PrototypeASTC1ERKNSt7__cxx1112basic_stringIcSt11char_traitsIcESaIcEEESt6vectorIS5_SaIS5_EE
	.def	_ZN12PrototypeASTC1ERKNSt7__cxx1112basic_stringIcSt11char_traitsIcESaIcEEESt6vectorIS5_SaIS5_EE;	.scl	2;	.type	32;	.endef
	.seh_proc	_ZN12PrototypeASTC1ERKNSt7__cxx1112basic_stringIcSt11char_traitsIcESaIcEEESt6vectorIS5_SaIS5_EE
_ZN12PrototypeASTC1ERKNSt7__cxx1112basic_stringIcSt11char_traitsIcESaIcEEESt6vectorIS5_SaIS5_EE:
.LFB2200:
	.loc 5 66 0 is_stmt 1
	.cfi_startproc
	pushq	%rbp
	.seh_pushreg	%rbp
	.cfi_def_cfa_offset 16
	.cfi_offset 6, -16
	pushq	%rbx
	.seh_pushreg	%rbx
	.cfi_def_cfa_offset 24
	.cfi_offset 3, -24
	subq	$40, %rsp
	.seh_stackalloc	40
	.cfi_def_cfa_offset 64
	leaq	128(%rsp), %rbp
	.seh_setframe	%rbp, 128
	.cfi_def_cfa 6, -64
	.seh_endprologue
	movq	%rcx, -64(%rbp)
	movq	%rdx, -56(%rbp)
	movq	%r8, -48(%rbp)
.LBB15:
	.loc 5 67 0
	movq	-64(%rbp), %rax
	movq	-56(%rbp), %rdx
	movq	%rax, %rcx
	call	_ZNSt7__cxx1112basic_stringIcSt11char_traitsIcESaIcEEC1ERKS4_
	movq	-64(%rbp), %rax
	leaq	32(%rax), %rbx
	movq	-48(%rbp), %rax
	movq	%rax, %rcx
	call	_ZSt4moveIRSt6vectorINSt7__cxx1112basic_stringIcSt11char_traitsIcESaIcEEESaIS6_EEEONSt16remove_referenceIT_E4typeEOSB_
	movq	%rax, %rdx
	movq	%rbx, %rcx
	call	_ZNSt6vectorINSt7__cxx1112basic_stringIcSt11char_traitsIcESaIcEEESaIS5_EEC1EOS7_
.LBE15:
	nop
	addq	$40, %rsp
	popq	%rbx
	.cfi_restore 3
	popq	%rbp
	.cfi_restore 6
	.cfi_def_cfa 7, -24
	ret
	.cfi_endproc
.LFE2200:
	.seh_endproc
	.section	.text$_ZN11FunctionASTC1ESt10unique_ptrI12PrototypeASTSt14default_deleteIS1_EES0_I7ExprASTS2_IS5_EE,"x"
	.linkonce discard
	.align 2
	.globl	_ZN11FunctionASTC1ESt10unique_ptrI12PrototypeASTSt14default_deleteIS1_EES0_I7ExprASTS2_IS5_EE
	.def	_ZN11FunctionASTC1ESt10unique_ptrI12PrototypeASTSt14default_deleteIS1_EES0_I7ExprASTS2_IS5_EE;	.scl	2;	.type	32;	.endef
	.seh_proc	_ZN11FunctionASTC1ESt10unique_ptrI12PrototypeASTSt14default_deleteIS1_EES0_I7ExprASTS2_IS5_EE
_ZN11FunctionASTC1ESt10unique_ptrI12PrototypeASTSt14default_deleteIS1_EES0_I7ExprASTS2_IS5_EE:
.LFB2203:
	.loc 5 77 0
	.cfi_startproc
	pushq	%rbp
	.seh_pushreg	%rbp
	.cfi_def_cfa_offset 16
	.cfi_offset 6, -16
	pushq	%rbx
	.seh_pushreg	%rbx
	.cfi_def_cfa_offset 24
	.cfi_offset 3, -24
	subq	$40, %rsp
	.seh_stackalloc	40
	.cfi_def_cfa_offset 64
	leaq	128(%rsp), %rbp
	.seh_setframe	%rbp, 128
	.cfi_def_cfa 6, -64
	.seh_endprologue
	movq	%rcx, -64(%rbp)
	movq	%rdx, -56(%rbp)
	movq	%r8, -48(%rbp)
.LBB16:
	.loc 5 79 0
	movq	-64(%rbp), %rbx
	movq	-56(%rbp), %rax
	movq	%rax, %rcx
	call	_ZSt4moveIRSt10unique_ptrI12PrototypeASTSt14default_deleteIS1_EEEONSt16remove_referenceIT_E4typeEOS7_
	movq	%rax, %rdx
	movq	%rbx, %rcx
	call	_ZNSt10unique_ptrI12PrototypeASTSt14default_deleteIS0_EEC1EOS3_
	movq	-64(%rbp), %rax
	leaq	8(%rax), %rbx
	movq	-48(%rbp), %rax
	movq	%rax, %rcx
	call	_ZSt4moveIRSt10unique_ptrI7ExprASTSt14default_deleteIS1_EEEONSt16remove_referenceIT_E4typeEOS7_
	movq	%rax, %rdx
	movq	%rbx, %rcx
	call	_ZNSt10unique_ptrI7ExprASTSt14default_deleteIS0_EEC1EOS3_
.LBE16:
	nop
	addq	$40, %rsp
	popq	%rbx
	.cfi_restore 3
	popq	%rbp
	.cfi_restore 6
	.cfi_def_cfa 7, -24
	ret
	.cfi_endproc
.LFE2203:
	.seh_endproc
.lcomm _ZStL8__ioinit,1,1
	.section	.text$_ZNSt15_Rb_tree_headerC2Ev,"x"
	.linkonce discard
	.align 2
	.globl	_ZNSt15_Rb_tree_headerC2Ev
	.def	_ZNSt15_Rb_tree_headerC2Ev;	.scl	2;	.type	32;	.endef
	.seh_proc	_ZNSt15_Rb_tree_headerC2Ev
_ZNSt15_Rb_tree_headerC2Ev:
.LFB2721:
	.file 6 "E:/mingw64/lib/gcc/x86_64-w64-mingw32/7.2.0/include/c++/bits/stl_tree.h"
	.loc 6 173 0
	.cfi_startproc
	pushq	%rbp
	.seh_pushreg	%rbp
	.cfi_def_cfa_offset 16
	.cfi_offset 6, -16
	movq	%rsp, %rbp
	.seh_setframe	%rbp, 0
	.cfi_def_cfa_register 6
	subq	$32, %rsp
	.seh_stackalloc	32
	.seh_endprologue
	movq	%rcx, 16(%rbp)
.LBB17:
	.loc 6 175 0
	movq	16(%rbp), %rax
	movl	$0, (%rax)
	.loc 6 176 0
	movq	16(%rbp), %rcx
	call	_ZNSt15_Rb_tree_header8_M_resetEv
.LBE17:
	.loc 6 177 0
	nop
	addq	$32, %rsp
	popq	%rbp
	.cfi_restore 6
	.cfi_def_cfa 7, 8
	ret
	.cfi_endproc
.LFE2721:
	.seh_endproc
	.section	.text$_ZNSt15_Rb_tree_header8_M_resetEv,"x"
	.linkonce discard
	.align 2
	.globl	_ZNSt15_Rb_tree_header8_M_resetEv
	.def	_ZNSt15_Rb_tree_header8_M_resetEv;	.scl	2;	.type	32;	.endef
	.seh_proc	_ZNSt15_Rb_tree_header8_M_resetEv
_ZNSt15_Rb_tree_header8_M_resetEv:
.LFB2727:
	.loc 6 206 0
	.cfi_startproc
	pushq	%rbp
	.seh_pushreg	%rbp
	.cfi_def_cfa_offset 16
	.cfi_offset 6, -16
	movq	%rsp, %rbp
	.seh_setframe	%rbp, 0
	.cfi_def_cfa_register 6
	.seh_endprologue
	movq	%rcx, 16(%rbp)
	.loc 6 208 0
	movq	16(%rbp), %rax
	movq	$0, 8(%rax)
	.loc 6 209 0
	movq	16(%rbp), %rdx
	movq	16(%rbp), %rax
	movq	%rdx, 16(%rax)
	.loc 6 210 0
	movq	16(%rbp), %rdx
	movq	16(%rbp), %rax
	movq	%rdx, 24(%rax)
	.loc 6 211 0
	movq	16(%rbp), %rax
	movq	$0, 32(%rax)
	.loc 6 212 0
	nop
	popq	%rbp
	.cfi_restore 6
	.cfi_def_cfa 7, 8
	ret
	.cfi_endproc
.LFE2727:
	.seh_endproc
.lcomm _ZL6CurTok,4,4
	.text
	.def	_ZL12getNextTokenv;	.scl	3;	.type	32;	.endef
	.seh_proc	_ZL12getNextTokenv
_ZL12getNextTokenv:
.LFB3030:
	.file 7 "include/parser/parser.cxx"
	.loc 7 38 0
	.cfi_startproc
	pushq	%rbp
	.seh_pushreg	%rbp
	.cfi_def_cfa_offset 16
	.cfi_offset 6, -16
	movq	%rsp, %rbp
	.seh_setframe	%rbp, 0
	.cfi_def_cfa_register 6
	subq	$32, %rsp
	.seh_stackalloc	32
	.seh_endprologue
	.loc 7 39 0
	call	_ZL6gettokv
	movl	%eax, _ZL6CurTok(%rip)
	movl	_ZL6CurTok(%rip), %eax
	.loc 7 40 0
	addq	$32, %rsp
	popq	%rbp
	.cfi_restore 6
	.cfi_def_cfa 7, 8
	ret
	.cfi_endproc
.LFE3030:
	.seh_endproc
	.section .rdata,"dr"
.LC3:
	.ascii "LogError: %s\12\0"
	.text
	.globl	_Z8LogErrorPKc
	.def	_Z8LogErrorPKc;	.scl	2;	.type	32;	.endef
	.seh_proc	_Z8LogErrorPKc
_Z8LogErrorPKc:
.LFB3031:
	.loc 7 44 0
	.cfi_startproc
	pushq	%rbp
	.seh_pushreg	%rbp
	.cfi_def_cfa_offset 16
	.cfi_offset 6, -16
	movq	%rsp, %rbp
	.seh_setframe	%rbp, 0
	.cfi_def_cfa_register 6
	subq	$32, %rsp
	.seh_stackalloc	32
	.seh_endprologue
	movq	%rcx, 16(%rbp)
	movq	%rdx, 24(%rbp)
	.loc 7 45 0
	movq	__imp___iob_func(%rip), %rax
	call	*%rax
.LVL3:
	.loc 7 45 0
	addq	$96, %rax
	movq	24(%rbp), %rdx
	movq	%rdx, %r8
	leaq	.LC3(%rip), %rdx
	movq	%rax, %rcx
	call	_Z7fprintfP6_iobufPKcz
	.loc 7 46 0
	movl	$0, %edx
	movq	16(%rbp), %rcx
	call	_ZNSt10unique_ptrI7ExprASTSt14default_deleteIS0_EEC1IS2_vEEDn
	.loc 7 47 0
	movq	16(%rbp), %rax
	addq	$32, %rsp
	popq	%rbp
	.cfi_restore 6
	.cfi_def_cfa 7, 8
	ret
	.cfi_endproc
.LFE3031:
	.seh_endproc
	.globl	_Z9LogErrorPPKc
	.def	_Z9LogErrorPPKc;	.scl	2;	.type	32;	.endef
	.seh_proc	_Z9LogErrorPPKc
_Z9LogErrorPPKc:
.LFB3032:
	.loc 7 49 0
	.cfi_startproc
	pushq	%rbp
	.seh_pushreg	%rbp
	.cfi_def_cfa_offset 16
	.cfi_offset 6, -16
	movq	%rsp, %rbp
	.seh_setframe	%rbp, 0
	.cfi_def_cfa_register 6
	subq	$48, %rsp
	.seh_stackalloc	48
	.seh_endprologue
	movq	%rcx, 16(%rbp)
	movq	%rdx, 24(%rbp)
	.loc 7 50 0
	leaq	-8(%rbp), %rax
	movq	24(%rbp), %rdx
	movq	%rax, %rcx
	call	_Z8LogErrorPKc
	leaq	-8(%rbp), %rax
	movq	%rax, %rcx
	call	_ZNSt10unique_ptrI7ExprASTSt14default_deleteIS0_EED1Ev
	.loc 7 51 0
	movl	$0, %edx
	movq	16(%rbp), %rcx
	call	_ZNSt10unique_ptrI12PrototypeASTSt14default_deleteIS0_EEC1IS2_vEEDn
	.loc 7 52 0
	movq	16(%rbp), %rax
	addq	$48, %rsp
	popq	%rbp
	.cfi_restore 6
	.cfi_def_cfa 7, 8
	ret
	.cfi_endproc
.LFE3032:
	.seh_endproc
	.def	_ZL15ParseNumberExprv;	.scl	3;	.type	32;	.endef
	.seh_proc	_ZL15ParseNumberExprv
_ZL15ParseNumberExprv:
.LFB3033:
	.loc 7 56 0
	.cfi_startproc
	.cfi_personality 0x9b,.LDFCM0
	.cfi_lsda 0x1c,.LLSDA3033
	pushq	%rbp
	.seh_pushreg	%rbp
	.cfi_def_cfa_offset 16
	.cfi_offset 6, -16
	pushq	%rbx
	.seh_pushreg	%rbx
	.cfi_def_cfa_offset 24
	.cfi_offset 3, -24
	subq	$56, %rsp
	.seh_stackalloc	56
	.cfi_def_cfa_offset 80
	leaq	128(%rsp), %rbp
	.seh_setframe	%rbp, 128
	.cfi_def_cfa 6, -48
	.seh_endprologue
	movq	%rcx, -48(%rbp)
	.loc 7 57 0
	leaq	-88(%rbp), %rax
	leaq	_ZL6NumVal(%rip), %rdx
	movq	%rax, %rcx
.LEHB7:
	call	_ZSt11make_uniqueI13NumberExprASTJRdEENSt9_MakeUniqIT_E15__single_objectEDpOT0_
.LEHE7:
.LEHB8:
	.loc 7 58 0
	call	_ZL12getNextTokenv
.LEHE8:
	.loc 7 59 0
	leaq	-88(%rbp), %rax
	movq	%rax, %rcx
	call	_ZSt4moveIRSt10unique_ptrI13NumberExprASTSt14default_deleteIS1_EEEONSt16remove_referenceIT_E4typeEOS7_
	movq	%rax, %rdx
	movq	-48(%rbp), %rcx
	call	_ZNSt10unique_ptrI7ExprASTSt14default_deleteIS0_EEC1I13NumberExprASTS1_IS5_EvEEOS_IT_T0_E
	.loc 7 57 0
	leaq	-88(%rbp), %rax
	movq	%rax, %rcx
	call	_ZNSt10unique_ptrI13NumberExprASTSt14default_deleteIS0_EED1Ev
	.loc 7 59 0
	jmp	.L59
.L58:
	movq	%rax, %rbx
	.loc 7 57 0
	leaq	-88(%rbp), %rax
	movq	%rax, %rcx
	call	_ZNSt10unique_ptrI13NumberExprASTSt14default_deleteIS0_EED1Ev
	movq	%rbx, %rax
	movq	%rax, %rcx
.LEHB9:
	call	_Unwind_Resume
.LEHE9:
.L59:
	.loc 7 60 0
	movq	-48(%rbp), %rax
	addq	$56, %rsp
	popq	%rbx
	.cfi_restore 3
	popq	%rbp
	.cfi_restore 6
	.cfi_def_cfa 7, -40
	ret
	.cfi_endproc
.LFE3033:
	.seh_handler	__gxx_personality_seh0, @unwind, @except
	.seh_handlerdata
.LLSDA3033:
	.byte	0xff
	.byte	0xff
	.byte	0x1
	.uleb128 .LLSDACSE3033-.LLSDACSB3033
.LLSDACSB3033:
	.uleb128 .LEHB7-.LFB3033
	.uleb128 .LEHE7-.LEHB7
	.uleb128 0
	.uleb128 0
	.uleb128 .LEHB8-.LFB3033
	.uleb128 .LEHE8-.LEHB8
	.uleb128 .L58-.LFB3033
	.uleb128 0
	.uleb128 .LEHB9-.LFB3033
	.uleb128 .LEHE9-.LEHB9
	.uleb128 0
	.uleb128 0
.LLSDACSE3033:
	.text
	.seh_endproc
	.section .rdata,"dr"
.LC4:
	.ascii "expected ')'\0"
	.text
	.def	_ZL14ParseParenExprv;	.scl	3;	.type	32;	.endef
	.seh_proc	_ZL14ParseParenExprv
_ZL14ParseParenExprv:
.LFB3034:
	.loc 7 65 0
	.cfi_startproc
	.cfi_personality 0x9b,.LDFCM0
	.cfi_lsda 0x1c,.LLSDA3034
	pushq	%rbp
	.seh_pushreg	%rbp
	.cfi_def_cfa_offset 16
	.cfi_offset 6, -16
	pushq	%rbx
	.seh_pushreg	%rbx
	.cfi_def_cfa_offset 24
	.cfi_offset 3, -24
	subq	$56, %rsp
	.seh_stackalloc	56
	.cfi_def_cfa_offset 80
	leaq	128(%rsp), %rbp
	.seh_setframe	%rbp, 128
	.cfi_def_cfa 6, -48
	.seh_endprologue
	movq	%rcx, -48(%rbp)
.LEHB10:
	.loc 7 66 0
	call	_ZL12getNextTokenv
	.loc 7 67 0
	leaq	-88(%rbp), %rax
	movq	%rax, %rcx
	call	_ZL15ParseExpressionv
.LEHE10:
	.loc 7 68 0
	leaq	-88(%rbp), %rax
	movq	%rax, %rcx
	call	_ZNKSt10unique_ptrI7ExprASTSt14default_deleteIS0_EEcvbEv
	xorl	$1, %eax
	testb	%al, %al
	je	.L61
	.loc 7 69 0
	movl	$0, %edx
	movq	-48(%rbp), %rcx
	call	_ZNSt10unique_ptrI7ExprASTSt14default_deleteIS0_EEC1IS2_vEEDn
	jmp	.L62
.L61:
	.loc 7 71 0
	movl	_ZL6CurTok(%rip), %eax
	cmpl	$41, %eax
	je	.L63
	.loc 7 72 0
	movq	-48(%rbp), %rax
	leaq	.LC4(%rip), %rdx
	movq	%rax, %rcx
.LEHB11:
	call	_Z8LogErrorPKc
	jmp	.L62
.L63:
	.loc 7 73 0
	call	_ZL12getNextTokenv
.LEHE11:
	.loc 7 74 0
	leaq	-88(%rbp), %rax
	movq	%rax, %rdx
	movq	-48(%rbp), %rcx
	call	_ZNSt10unique_ptrI7ExprASTSt14default_deleteIS0_EEC1EOS3_
.L62:
	.loc 7 67 0
	leaq	-88(%rbp), %rax
	movq	%rax, %rcx
	call	_ZNSt10unique_ptrI7ExprASTSt14default_deleteIS0_EED1Ev
	jmp	.L67
.L66:
	movq	%rax, %rbx
	leaq	-88(%rbp), %rax
	movq	%rax, %rcx
	call	_ZNSt10unique_ptrI7ExprASTSt14default_deleteIS0_EED1Ev
	movq	%rbx, %rax
	movq	%rax, %rcx
.LEHB12:
	call	_Unwind_Resume
.LEHE12:
.L67:
	.loc 7 75 0
	movq	-48(%rbp), %rax
	addq	$56, %rsp
	popq	%rbx
	.cfi_restore 3
	popq	%rbp
	.cfi_restore 6
	.cfi_def_cfa 7, -40
	ret
	.cfi_endproc
.LFE3034:
	.seh_handler	__gxx_personality_seh0, @unwind, @except
	.seh_handlerdata
.LLSDA3034:
	.byte	0xff
	.byte	0xff
	.byte	0x1
	.uleb128 .LLSDACSE3034-.LLSDACSB3034
.LLSDACSB3034:
	.uleb128 .LEHB10-.LFB3034
	.uleb128 .LEHE10-.LEHB10
	.uleb128 0
	.uleb128 0
	.uleb128 .LEHB11-.LFB3034
	.uleb128 .LEHE11-.LEHB11
	.uleb128 .L66-.LFB3034
	.uleb128 0
	.uleb128 .LEHB12-.LFB3034
	.uleb128 .LEHE12-.LEHB12
	.uleb128 0
	.uleb128 0
.LLSDACSE3034:
	.text
	.seh_endproc
	.section .rdata,"dr"
	.align 8
.LC5:
	.ascii "Expected ')' or ',' in argument list\0"
	.text
	.def	_ZL19ParseIdentifierExprv;	.scl	3;	.type	32;	.endef
	.seh_proc	_ZL19ParseIdentifierExprv
_ZL19ParseIdentifierExprv:
.LFB3035:
	.loc 7 81 0
	.cfi_startproc
	.cfi_personality 0x9b,.LDFCM0
	.cfi_lsda 0x1c,.LLSDA3035
	pushq	%rbp
	.seh_pushreg	%rbp
	.cfi_def_cfa_offset 16
	.cfi_offset 6, -16
	pushq	%rbx
	.seh_pushreg	%rbx
	.cfi_def_cfa_offset 24
	.cfi_offset 3, -24
	subq	$136, %rsp
	.seh_stackalloc	136
	.cfi_def_cfa_offset 160
	leaq	128(%rsp), %rbp
	.seh_setframe	%rbp, 128
	.cfi_def_cfa 6, 32
	.seh_endprologue
	movq	%rcx, 32(%rbp)
	.loc 7 82 0
	leaq	-48(%rbp), %rax
	leaq	_ZL13IdentifierStr(%rip), %rdx
	movq	%rax, %rcx
.LEHB13:
	call	_ZNSt7__cxx1112basic_stringIcSt11char_traitsIcESaIcEEC1ERKS4_
.LEHE13:
.LEHB14:
	.loc 7 84 0
	call	_ZL12getNextTokenv
	.loc 7 86 0
	movl	_ZL6CurTok(%rip), %eax
	cmpl	$40, %eax
	je	.L69
	.loc 7 87 0
	leaq	-16(%rbp), %rax
	leaq	-48(%rbp), %rdx
	movq	%rax, %rcx
	call	_ZSt11make_uniqueI15VariableExprASTJRNSt7__cxx1112basic_stringIcSt11char_traitsIcESaIcEEEEENSt9_MakeUniqIT_E15__single_objectEDpOT0_
	.loc 7 87 0 is_stmt 0 discriminator 1
	leaq	-16(%rbp), %rax
	movq	%rax, %rdx
	movq	32(%rbp), %rcx
	call	_ZNSt10unique_ptrI7ExprASTSt14default_deleteIS0_EEC1I15VariableExprASTS1_IS5_EvEEOS_IT_T0_E
	leaq	-16(%rbp), %rax
	movq	%rax, %rcx
	call	_ZNSt10unique_ptrI15VariableExprASTSt14default_deleteIS0_EED1Ev
	jmp	.L70
.L69:
	.loc 7 90 0 is_stmt 1
	call	_ZL12getNextTokenv
.LEHE14:
	.loc 7 91 0
	leaq	-80(%rbp), %rax
	movq	%rax, %rcx
	call	_ZNSt6vectorISt10unique_ptrI7ExprASTSt14default_deleteIS1_EESaIS4_EEC1Ev
.LBB18:
	.loc 7 92 0
	movl	_ZL6CurTok(%rip), %eax
	cmpl	$41, %eax
	je	.L71
.L82:
.LBB19:
.LBB20:
.LBB21:
	.loc 7 96 0
	leaq	-88(%rbp), %rax
	movq	%rax, %rcx
.LEHB15:
	call	_ZL15ParseExpressionv
.LEHE15:
	.loc 7 96 0 is_stmt 0 discriminator 1
	leaq	-88(%rbp), %rax
	movq	%rax, %rcx
	call	_ZNKSt10unique_ptrI7ExprASTSt14default_deleteIS0_EEcvbEv
	testb	%al, %al
	je	.L72
	.loc 7 97 0 is_stmt 1
	leaq	-88(%rbp), %rax
	movq	%rax, %rcx
	call	_ZSt4moveIRSt10unique_ptrI7ExprASTSt14default_deleteIS1_EEEONSt16remove_referenceIT_E4typeEOS7_
	movq	%rax, %rdx
	leaq	-80(%rbp), %rax
	movq	%rax, %rcx
.LEHB16:
	call	_ZNSt6vectorISt10unique_ptrI7ExprASTSt14default_deleteIS1_EESaIS4_EE9push_backEOS4_
.LEHE16:
	jmp	.L91
.L72:
	.loc 7 99 0
	movl	$0, %edx
	movq	32(%rbp), %rcx
	call	_ZNSt10unique_ptrI7ExprASTSt14default_deleteIS0_EEC1IS2_vEEDn
	movl	$0, %ebx
	jmp	.L74
.L91:
	movl	$1, %ebx
.L74:
	leaq	-88(%rbp), %rax
	movq	%rax, %rcx
	call	_ZNSt10unique_ptrI7ExprASTSt14default_deleteIS0_EED1Ev
	cmpl	$1, %ebx
	jne	.L79
	.loc 7 96 0
	nop
.LBE21:
	.loc 7 101 0
	movl	_ZL6CurTok(%rip), %eax
	cmpl	$41, %eax
	je	.L93
	.loc 7 104 0
	movl	_ZL6CurTok(%rip), %eax
	cmpl	$44, %eax
	je	.L81
	.loc 7 105 0
	movq	32(%rbp), %rax
	leaq	.LC5(%rip), %rdx
	movq	%rax, %rcx
.LEHB17:
	call	_Z8LogErrorPKc
	jmp	.L79
.L81:
	.loc 7 106 0
	call	_ZL12getNextTokenv
.LBE20:
	.loc 7 107 0
	jmp	.L82
.L93:
.LBB23:
	.loc 7 102 0
	nop
.L71:
.LBE23:
.LBE19:
.LBE18:
	.loc 7 111 0
	call	_ZL12getNextTokenv
	.loc 7 113 0
	leaq	-80(%rbp), %rax
	movq	%rax, %rcx
	call	_ZSt4moveIRSt6vectorISt10unique_ptrI7ExprASTSt14default_deleteIS2_EESaIS5_EEEONSt16remove_referenceIT_E4typeEOSA_
	movq	%rax, %rcx
	leaq	-8(%rbp), %rax
	leaq	-48(%rbp), %rdx
	movq	%rcx, %r8
	movq	%rax, %rcx
	call	_ZSt11make_uniqueI11CallExprASTJRNSt7__cxx1112basic_stringIcSt11char_traitsIcESaIcEEESt6vectorISt10unique_ptrI7ExprASTSt14default_deleteISA_EESaISD_EEEENSt9_MakeUniqIT_E15__single_objectEDpOT0_
.LEHE17:
	.loc 7 113 0 is_stmt 0 discriminator 1
	leaq	-8(%rbp), %rax
	movq	%rax, %rdx
	movq	32(%rbp), %rcx
	call	_ZNSt10unique_ptrI7ExprASTSt14default_deleteIS0_EEC1I11CallExprASTS1_IS5_EvEEOS_IT_T0_E
	leaq	-8(%rbp), %rax
	movq	%rax, %rcx
	call	_ZNSt10unique_ptrI11CallExprASTSt14default_deleteIS0_EED1Ev
.L79:
	.loc 7 91 0 is_stmt 1
	leaq	-80(%rbp), %rax
	movq	%rax, %rcx
	call	_ZNSt6vectorISt10unique_ptrI7ExprASTSt14default_deleteIS1_EESaIS4_EED1Ev
.L70:
	.loc 7 82 0
	leaq	-48(%rbp), %rax
	movq	%rax, %rcx
	call	_ZNSt7__cxx1112basic_stringIcSt11char_traitsIcESaIcEED1Ev
	jmp	.L92
.L88:
	movq	%rax, %rbx
.LBB26:
.LBB25:
.LBB24:
.LBB22:
	.loc 7 96 0
	leaq	-88(%rbp), %rax
	movq	%rax, %rcx
	call	_ZNSt10unique_ptrI7ExprASTSt14default_deleteIS0_EED1Ev
	jmp	.L85
.L89:
	movq	%rax, %rbx
.L85:
.LBE22:
.LBE24:
.LBE25:
.LBE26:
	.loc 7 91 0
	leaq	-80(%rbp), %rax
	movq	%rax, %rcx
	call	_ZNSt6vectorISt10unique_ptrI7ExprASTSt14default_deleteIS1_EESaIS4_EED1Ev
	jmp	.L86
.L87:
	movq	%rax, %rbx
.L86:
	.loc 7 82 0
	leaq	-48(%rbp), %rax
	movq	%rax, %rcx
	call	_ZNSt7__cxx1112basic_stringIcSt11char_traitsIcESaIcEED1Ev
	movq	%rbx, %rax
	movq	%rax, %rcx
.LEHB18:
	call	_Unwind_Resume
.LEHE18:
.L92:
	.loc 7 114 0
	movq	32(%rbp), %rax
	addq	$136, %rsp
	popq	%rbx
	.cfi_restore 3
	popq	%rbp
	.cfi_restore 6
	.cfi_def_cfa 7, -120
	ret
	.cfi_endproc
.LFE3035:
	.seh_handler	__gxx_personality_seh0, @unwind, @except
	.seh_handlerdata
.LLSDA3035:
	.byte	0xff
	.byte	0xff
	.byte	0x1
	.uleb128 .LLSDACSE3035-.LLSDACSB3035
.LLSDACSB3035:
	.uleb128 .LEHB13-.LFB3035
	.uleb128 .LEHE13-.LEHB13
	.uleb128 0
	.uleb128 0
	.uleb128 .LEHB14-.LFB3035
	.uleb128 .LEHE14-.LEHB14
	.uleb128 .L87-.LFB3035
	.uleb128 0
	.uleb128 .LEHB15-.LFB3035
	.uleb128 .LEHE15-.LEHB15
	.uleb128 .L89-.LFB3035
	.uleb128 0
	.uleb128 .LEHB16-.LFB3035
	.uleb128 .LEHE16-.LEHB16
	.uleb128 .L88-.LFB3035
	.uleb128 0
	.uleb128 .LEHB17-.LFB3035
	.uleb128 .LEHE17-.LEHB17
	.uleb128 .L89-.LFB3035
	.uleb128 0
	.uleb128 .LEHB18-.LFB3035
	.uleb128 .LEHE18-.LEHB18
	.uleb128 0
	.uleb128 0
.LLSDACSE3035:
	.text
	.seh_endproc
	.section .rdata,"dr"
	.align 8
.LC6:
	.ascii "unknown token when expecting and expression\0"
	.text
	.def	_ZL12ParsePrimaryv;	.scl	3;	.type	32;	.endef
	.seh_proc	_ZL12ParsePrimaryv
_ZL12ParsePrimaryv:
.LFB3036:
	.loc 7 121 0
	.cfi_startproc
	pushq	%rbp
	.seh_pushreg	%rbp
	.cfi_def_cfa_offset 16
	.cfi_offset 6, -16
	movq	%rsp, %rbp
	.seh_setframe	%rbp, 0
	.cfi_def_cfa_register 6
	subq	$32, %rsp
	.seh_stackalloc	32
	.seh_endprologue
	movq	%rcx, 16(%rbp)
	.loc 7 122 0
	movl	_ZL6CurTok(%rip), %eax
	cmpl	$-4, %eax
	je	.L96
	cmpl	$40, %eax
	je	.L97
	cmpl	$-5, %eax
	je	.L98
	jmp	.L100
.L96:
	.loc 7 125 0
	movq	16(%rbp), %rax
	movq	%rax, %rcx
	call	_ZL19ParseIdentifierExprv
	jmp	.L94
.L98:
	.loc 7 127 0
	movq	16(%rbp), %rax
	movq	%rax, %rcx
	call	_ZL15ParseNumberExprv
	jmp	.L94
.L97:
	.loc 7 129 0
	movq	16(%rbp), %rax
	movq	%rax, %rcx
	call	_ZL14ParseParenExprv
	jmp	.L94
.L100:
	.loc 7 132 0
	movq	16(%rbp), %rax
	leaq	.LC6(%rip), %rdx
	movq	%rax, %rcx
	call	_Z8LogErrorPKc
.L94:
	.loc 7 134 0
	movq	16(%rbp), %rax
	addq	$32, %rsp
	popq	%rbp
	.cfi_restore 6
	.cfi_def_cfa 7, 8
	ret
	.cfi_endproc
.LFE3036:
	.seh_endproc
	.section	.text$_ZNSt8_Rb_treeIcSt4pairIKciESt10_Select1stIS2_ESt4lessIcESaIS2_EE13_Rb_tree_implIS6_Lb1EEC1Ev,"x"
	.linkonce discard
	.align 2
	.globl	_ZNSt8_Rb_treeIcSt4pairIKciESt10_Select1stIS2_ESt4lessIcESaIS2_EE13_Rb_tree_implIS6_Lb1EEC1Ev
	.def	_ZNSt8_Rb_treeIcSt4pairIKciESt10_Select1stIS2_ESt4lessIcESaIS2_EE13_Rb_tree_implIS6_Lb1EEC1Ev;	.scl	2;	.type	32;	.endef
	.seh_proc	_ZNSt8_Rb_treeIcSt4pairIKciESt10_Select1stIS2_ESt4lessIcESaIS2_EE13_Rb_tree_implIS6_Lb1EEC1Ev
_ZNSt8_Rb_treeIcSt4pairIKciESt10_Select1stIS2_ESt4lessIcESaIS2_EE13_Rb_tree_implIS6_Lb1EEC1Ev:
.LFB3041:
	.loc 6 688 0
	.cfi_startproc
	pushq	%rbp
	.seh_pushreg	%rbp
	.cfi_def_cfa_offset 16
	.cfi_offset 6, -16
	movq	%rsp, %rbp
	.seh_setframe	%rbp, 0
	.cfi_def_cfa_register 6
	subq	$32, %rsp
	.seh_stackalloc	32
	.seh_endprologue
	movq	%rcx, 16(%rbp)
.LBB27:
	.loc 6 688 0
	movq	16(%rbp), %rcx
	call	_ZNSaISt13_Rb_tree_nodeISt4pairIKciEEEC2Ev
	movq	16(%rbp), %rax
	movq	%rax, %rcx
	call	_ZNSt20_Rb_tree_key_compareISt4lessIcEEC2Ev
	movq	16(%rbp), %rax
	addq	$8, %rax
	movq	%rax, %rcx
	call	_ZNSt15_Rb_tree_headerC2Ev
.LBE27:
	nop
	addq	$32, %rsp
	popq	%rbp
	.cfi_restore 6
	.cfi_def_cfa 7, 8
	ret
	.cfi_endproc
.LFE3041:
	.seh_endproc
	.section	.text$_ZNSt8_Rb_treeIcSt4pairIKciESt10_Select1stIS2_ESt4lessIcESaIS2_EE13_Rb_tree_implIS6_Lb1EED1Ev,"x"
	.linkonce discard
	.align 2
	.globl	_ZNSt8_Rb_treeIcSt4pairIKciESt10_Select1stIS2_ESt4lessIcESaIS2_EE13_Rb_tree_implIS6_Lb1EED1Ev
	.def	_ZNSt8_Rb_treeIcSt4pairIKciESt10_Select1stIS2_ESt4lessIcESaIS2_EE13_Rb_tree_implIS6_Lb1EED1Ev;	.scl	2;	.type	32;	.endef
	.seh_proc	_ZNSt8_Rb_treeIcSt4pairIKciESt10_Select1stIS2_ESt4lessIcESaIS2_EE13_Rb_tree_implIS6_Lb1EED1Ev
_ZNSt8_Rb_treeIcSt4pairIKciESt10_Select1stIS2_ESt4lessIcESaIS2_EE13_Rb_tree_implIS6_Lb1EED1Ev:
.LFB3044:
	.loc 6 677 0
	.cfi_startproc
	pushq	%rbp
	.seh_pushreg	%rbp
	.cfi_def_cfa_offset 16
	.cfi_offset 6, -16
	movq	%rsp, %rbp
	.seh_setframe	%rbp, 0
	.cfi_def_cfa_register 6
	subq	$32, %rsp
	.seh_stackalloc	32
	.seh_endprologue
	movq	%rcx, 16(%rbp)
.LBB28:
	.loc 6 677 0
	movq	16(%rbp), %rcx
	call	_ZNSaISt13_Rb_tree_nodeISt4pairIKciEEED2Ev
.LBE28:
	nop
	addq	$32, %rsp
	popq	%rbp
	.cfi_restore 6
	.cfi_def_cfa 7, 8
	ret
	.cfi_endproc
.LFE3044:
	.seh_endproc
	.section	.text$_ZNSt8_Rb_treeIcSt4pairIKciESt10_Select1stIS2_ESt4lessIcESaIS2_EEC1Ev,"x"
	.linkonce discard
	.align 2
	.globl	_ZNSt8_Rb_treeIcSt4pairIKciESt10_Select1stIS2_ESt4lessIcESaIS2_EEC1Ev
	.def	_ZNSt8_Rb_treeIcSt4pairIKciESt10_Select1stIS2_ESt4lessIcESaIS2_EEC1Ev;	.scl	2;	.type	32;	.endef
	.seh_proc	_ZNSt8_Rb_treeIcSt4pairIKciESt10_Select1stIS2_ESt4lessIcESaIS2_EEC1Ev
_ZNSt8_Rb_treeIcSt4pairIKciESt10_Select1stIS2_ESt4lessIcESaIS2_EEC1Ev:
.LFB3046:
	.loc 6 913 0
	.cfi_startproc
	pushq	%rbp
	.seh_pushreg	%rbp
	.cfi_def_cfa_offset 16
	.cfi_offset 6, -16
	movq	%rsp, %rbp
	.seh_setframe	%rbp, 0
	.cfi_def_cfa_register 6
	subq	$32, %rsp
	.seh_stackalloc	32
	.seh_endprologue
	movq	%rcx, 16(%rbp)
.LBB29:
	.loc 6 913 0
	movq	16(%rbp), %rax
	movq	%rax, %rcx
	call	_ZNSt8_Rb_treeIcSt4pairIKciESt10_Select1stIS2_ESt4lessIcESaIS2_EE13_Rb_tree_implIS6_Lb1EEC1Ev
.LBE29:
	nop
	addq	$32, %rsp
	popq	%rbp
	.cfi_restore 6
	.cfi_def_cfa 7, 8
	ret
	.cfi_endproc
.LFE3046:
	.seh_endproc
	.section	.text$_ZNSt3mapIciSt4lessIcESaISt4pairIKciEEEC1Ev,"x"
	.linkonce discard
	.align 2
	.globl	_ZNSt3mapIciSt4lessIcESaISt4pairIKciEEEC1Ev
	.def	_ZNSt3mapIciSt4lessIcESaISt4pairIKciEEEC1Ev;	.scl	2;	.type	32;	.endef
	.seh_proc	_ZNSt3mapIciSt4lessIcESaISt4pairIKciEEEC1Ev
_ZNSt3mapIciSt4lessIcESaISt4pairIKciEEEC1Ev:
.LFB3048:
	.file 8 "E:/mingw64/lib/gcc/x86_64-w64-mingw32/7.2.0/include/c++/bits/stl_map.h"
	.loc 8 177 0
	.cfi_startproc
	pushq	%rbp
	.seh_pushreg	%rbp
	.cfi_def_cfa_offset 16
	.cfi_offset 6, -16
	movq	%rsp, %rbp
	.seh_setframe	%rbp, 0
	.cfi_def_cfa_register 6
	subq	$32, %rsp
	.seh_stackalloc	32
	.seh_endprologue
	movq	%rcx, 16(%rbp)
.LBB30:
	.loc 8 177 0
	movq	16(%rbp), %rax
	movq	%rax, %rcx
	call	_ZNSt8_Rb_treeIcSt4pairIKciESt10_Select1stIS2_ESt4lessIcESaIS2_EEC1Ev
.LBE30:
	nop
	addq	$32, %rsp
	popq	%rbp
	.cfi_restore 6
	.cfi_def_cfa 7, 8
	ret
	.cfi_endproc
.LFE3048:
	.seh_endproc
.lcomm _ZL15BinopPrecedence,48,32
	.text
	.def	_ZL16GetTokPrecedencev;	.scl	3;	.type	32;	.endef
	.seh_proc	_ZL16GetTokPrecedencev
_ZL16GetTokPrecedencev:
.LFB3049:
	.loc 7 143 0
	.cfi_startproc
	pushq	%rbp
	.seh_pushreg	%rbp
	.cfi_def_cfa_offset 16
	.cfi_offset 6, -16
	movq	%rsp, %rbp
	.seh_setframe	%rbp, 0
	.cfi_def_cfa_register 6
	subq	$48, %rsp
	.seh_stackalloc	48
	.seh_endprologue
	.loc 7 144 0
	movl	_ZL6CurTok(%rip), %eax
	.loc 7 144 0
	cmpl	$127, %eax
	jbe	.L106
	.loc 7 145 0
	movl	$-1, %eax
	jmp	.L107
.L106:
	.loc 7 148 0
	movl	_ZL6CurTok(%rip), %eax
	movb	%al, -5(%rbp)
	leaq	-5(%rbp), %rax
	movq	%rax, %rdx
	leaq	_ZL15BinopPrecedence(%rip), %rcx
	call	_ZNSt3mapIciSt4lessIcESaISt4pairIKciEEEixEOc
	movl	(%rax), %eax
	movl	%eax, -4(%rbp)
	.loc 7 149 0
	cmpl	$0, -4(%rbp)
	jg	.L108
	.loc 7 149 0 is_stmt 0 discriminator 1
	movl	$-1, %eax
	jmp	.L107
.L108:
	.loc 7 150 0 is_stmt 1
	movl	-4(%rbp), %eax
.L107:
	.loc 7 151 0
	addq	$48, %rsp
	popq	%rbp
	.cfi_restore 6
	.cfi_def_cfa 7, 8
	ret
	.cfi_endproc
.LFE3049:
	.seh_endproc
	.def	_ZL15ParseExpressionv;	.scl	3;	.type	32;	.endef
	.seh_proc	_ZL15ParseExpressionv
_ZL15ParseExpressionv:
.LFB3050:
	.loc 7 159 0
	.cfi_startproc
	.cfi_personality 0x9b,.LDFCM0
	.cfi_lsda 0x1c,.LLSDA3050
	pushq	%rbp
	.seh_pushreg	%rbp
	.cfi_def_cfa_offset 16
	.cfi_offset 6, -16
	pushq	%rbx
	.seh_pushreg	%rbx
	.cfi_def_cfa_offset 24
	.cfi_offset 3, -24
	subq	$56, %rsp
	.seh_stackalloc	56
	.cfi_def_cfa_offset 80
	leaq	128(%rsp), %rbp
	.seh_setframe	%rbp, 128
	.cfi_def_cfa 6, -48
	.seh_endprologue
	movq	%rcx, -48(%rbp)
	.loc 7 160 0
	leaq	-96(%rbp), %rax
	movq	%rax, %rcx
.LEHB19:
	call	_ZL12ParsePrimaryv
.LEHE19:
	.loc 7 161 0
	leaq	-96(%rbp), %rax
	movq	%rax, %rcx
	call	_ZNKSt10unique_ptrI7ExprASTSt14default_deleteIS0_EEcvbEv
	xorl	$1, %eax
	testb	%al, %al
	je	.L110
	.loc 7 162 0
	movl	$0, %edx
	movq	-48(%rbp), %rcx
	call	_ZNSt10unique_ptrI7ExprASTSt14default_deleteIS0_EEC1IS2_vEEDn
	jmp	.L111
.L110:
	.loc 7 164 0
	leaq	-96(%rbp), %rax
	movq	%rax, %rcx
	call	_ZSt4moveIRSt10unique_ptrI7ExprASTSt14default_deleteIS1_EEEONSt16remove_referenceIT_E4typeEOS7_
	movq	%rax, %rdx
	leaq	-88(%rbp), %rax
	movq	%rax, %rcx
	call	_ZNSt10unique_ptrI7ExprASTSt14default_deleteIS0_EEC1EOS3_
	movq	-48(%rbp), %rax
	leaq	-88(%rbp), %rdx
	movq	%rdx, %r8
	movl	$0, %edx
	movq	%rax, %rcx
.LEHB20:
	call	_ZL13ParseBinOpRHSiSt10unique_ptrI7ExprASTSt14default_deleteIS0_EE
.LEHE20:
	leaq	-88(%rbp), %rax
	movq	%rax, %rcx
	call	_ZNSt10unique_ptrI7ExprASTSt14default_deleteIS0_EED1Ev
.L111:
	.loc 7 160 0
	leaq	-96(%rbp), %rax
	movq	%rax, %rcx
	call	_ZNSt10unique_ptrI7ExprASTSt14default_deleteIS0_EED1Ev
	jmp	.L115
.L114:
	movq	%rax, %rbx
	.loc 7 164 0
	leaq	-88(%rbp), %rax
	movq	%rax, %rcx
	call	_ZNSt10unique_ptrI7ExprASTSt14default_deleteIS0_EED1Ev
	.loc 7 160 0
	leaq	-96(%rbp), %rax
	movq	%rax, %rcx
	call	_ZNSt10unique_ptrI7ExprASTSt14default_deleteIS0_EED1Ev
	movq	%rbx, %rax
	movq	%rax, %rcx
.LEHB21:
	call	_Unwind_Resume
.LEHE21:
.L115:
	.loc 7 165 0
	movq	-48(%rbp), %rax
	addq	$56, %rsp
	popq	%rbx
	.cfi_restore 3
	popq	%rbp
	.cfi_restore 6
	.cfi_def_cfa 7, -40
	ret
	.cfi_endproc
.LFE3050:
	.seh_handler	__gxx_personality_seh0, @unwind, @except
	.seh_handlerdata
.LLSDA3050:
	.byte	0xff
	.byte	0xff
	.byte	0x1
	.uleb128 .LLSDACSE3050-.LLSDACSB3050
.LLSDACSB3050:
	.uleb128 .LEHB19-.LFB3050
	.uleb128 .LEHE19-.LEHB19
	.uleb128 0
	.uleb128 0
	.uleb128 .LEHB20-.LFB3050
	.uleb128 .LEHE20-.LEHB20
	.uleb128 .L114-.LFB3050
	.uleb128 0
	.uleb128 .LEHB21-.LFB3050
	.uleb128 .LEHE21-.LEHB21
	.uleb128 0
	.uleb128 0
.LLSDACSE3050:
	.text
	.seh_endproc
	.def	_ZL13ParseBinOpRHSiSt10unique_ptrI7ExprASTSt14default_deleteIS0_EE;	.scl	3;	.type	32;	.endef
	.seh_proc	_ZL13ParseBinOpRHSiSt10unique_ptrI7ExprASTSt14default_deleteIS0_EE
_ZL13ParseBinOpRHSiSt10unique_ptrI7ExprASTSt14default_deleteIS0_EE:
.LFB3051:
	.loc 7 171 0
	.cfi_startproc
	.cfi_personality 0x9b,.LDFCM0
	.cfi_lsda 0x1c,.LLSDA3051
	pushq	%rbp
	.seh_pushreg	%rbp
	.cfi_def_cfa_offset 16
	.cfi_offset 6, -16
	pushq	%rbx
	.seh_pushreg	%rbx
	.cfi_def_cfa_offset 24
	.cfi_offset 3, -24
	subq	$88, %rsp
	.seh_stackalloc	88
	.cfi_def_cfa_offset 112
	leaq	128(%rsp), %rbp
	.seh_setframe	%rbp, 128
	.cfi_def_cfa 6, -16
	.seh_endprologue
	movq	%rcx, -16(%rbp)
	movl	%edx, -8(%rbp)
	movq	%r8, 0(%rbp)
.L123:
.LEHB22:
.LBB31:
	.loc 7 175 0
	call	_ZL16GetTokPrecedencev
	movl	%eax, -52(%rbp)
	.loc 7 179 0
	movl	-52(%rbp), %eax
	cmpl	-8(%rbp), %eax
	jge	.L117
	.loc 7 180 0
	movq	0(%rbp), %rax
	movq	%rax, %rdx
	movq	-16(%rbp), %rcx
	call	_ZNSt10unique_ptrI7ExprASTSt14default_deleteIS0_EEC1EOS3_
	jmp	.L116
.L117:
	.loc 7 183 0
	movl	_ZL6CurTok(%rip), %eax
	movl	%eax, -84(%rbp)
	.loc 7 184 0
	call	_ZL12getNextTokenv
	.loc 7 187 0
	leaq	-96(%rbp), %rax
	movq	%rax, %rcx
	call	_ZL12ParsePrimaryv
.LEHE22:
	.loc 7 188 0
	leaq	-96(%rbp), %rax
	movq	%rax, %rcx
	call	_ZNKSt10unique_ptrI7ExprASTSt14default_deleteIS0_EEcvbEv
	xorl	$1, %eax
	testb	%al, %al
	je	.L119
	.loc 7 189 0
	movl	$0, %edx
	movq	-16(%rbp), %rcx
	call	_ZNSt10unique_ptrI7ExprASTSt14default_deleteIS0_EEC1IS2_vEEDn
	movl	$0, %ebx
	jmp	.L120
.L119:
.LEHB23:
	.loc 7 193 0
	call	_ZL16GetTokPrecedencev
.LEHE23:
	movl	%eax, -56(%rbp)
	.loc 7 194 0
	movl	-52(%rbp), %eax
	cmpl	-56(%rbp), %eax
	jge	.L121
	.loc 7 196 0
	leaq	-96(%rbp), %rax
	movq	%rax, %rcx
	call	_ZSt4moveIRSt10unique_ptrI7ExprASTSt14default_deleteIS1_EEEONSt16remove_referenceIT_E4typeEOS7_
	movq	%rax, %rdx
	leaq	-72(%rbp), %rax
	movq	%rax, %rcx
	call	_ZNSt10unique_ptrI7ExprASTSt14default_deleteIS0_EEC1EOS3_
	movl	-52(%rbp), %eax
	leal	1(%rax), %edx
	leaq	-80(%rbp), %rax
	leaq	-72(%rbp), %rcx
	movq	%rcx, %r8
	movq	%rax, %rcx
.LEHB24:
	call	_ZL13ParseBinOpRHSiSt10unique_ptrI7ExprASTSt14default_deleteIS0_EE
.LEHE24:
	.loc 7 196 0 is_stmt 0 discriminator 2
	leaq	-80(%rbp), %rdx
	leaq	-96(%rbp), %rax
	movq	%rax, %rcx
	call	_ZNSt10unique_ptrI7ExprASTSt14default_deleteIS0_EEaSEOS3_
	leaq	-80(%rbp), %rax
	movq	%rax, %rcx
	call	_ZNSt10unique_ptrI7ExprASTSt14default_deleteIS0_EED1Ev
	leaq	-72(%rbp), %rax
	movq	%rax, %rcx
	call	_ZNSt10unique_ptrI7ExprASTSt14default_deleteIS0_EED1Ev
	.loc 7 197 0 is_stmt 1 discriminator 2
	leaq	-96(%rbp), %rax
	movq	%rax, %rcx
	call	_ZNKSt10unique_ptrI7ExprASTSt14default_deleteIS0_EEcvbEv
	xorl	$1, %eax
	testb	%al, %al
	je	.L121
	.loc 7 198 0
	movl	$0, %edx
	movq	-16(%rbp), %rcx
	call	_ZNSt10unique_ptrI7ExprASTSt14default_deleteIS0_EEC1IS2_vEEDn
	movl	$0, %ebx
	jmp	.L120
.L121:
	.loc 7 203 0
	leaq	-96(%rbp), %rax
	movq	%rax, %rcx
	call	_ZSt4moveIRSt10unique_ptrI7ExprASTSt14default_deleteIS1_EEEONSt16remove_referenceIT_E4typeEOS7_
	movq	%rax, %rbx
	.loc 7 202 0
	movq	0(%rbp), %rax
	movq	%rax, %rcx
	call	_ZSt4moveIRSt10unique_ptrI7ExprASTSt14default_deleteIS1_EEEONSt16remove_referenceIT_E4typeEOS7_
	movq	%rax, %rcx
	leaq	-64(%rbp), %rax
	leaq	-84(%rbp), %rdx
	movq	%rbx, %r9
	movq	%rcx, %r8
	movq	%rax, %rcx
.LEHB25:
	call	_ZSt11make_uniqueI13BinaryExprASTJRiSt10unique_ptrI7ExprASTSt14default_deleteIS3_EES6_EENSt9_MakeUniqIT_E15__single_objectEDpOT0_
.LEHE25:
	.loc 7 202 0 is_stmt 0 discriminator 1
	leaq	-64(%rbp), %rdx
	movq	0(%rbp), %rax
	movq	%rax, %rcx
	call	_ZNSt10unique_ptrI7ExprASTSt14default_deleteIS0_EEaSI13BinaryExprASTS1_IS5_EEENSt9enable_ifIXsrSt6__and_IJS8_IJSt14is_convertibleINS_IT_T0_E7pointerEPS0_ESt6__not_ISt8is_arrayISA_EESt5__or_IJS8_IJSt12is_referenceIS2_ESt7is_sameIS2_SB_EEES8_IJSG_ISM_ES9_ISB_S2_EEEEEEESt13is_assignableIRS2_OSB_EEE5valueERS3_E4typeEOSC_
	leaq	-64(%rbp), %rax
	movq	%rax, %rcx
	call	_ZNSt10unique_ptrI13BinaryExprASTSt14default_deleteIS0_EED1Ev
	movl	$1, %ebx
.L120:
	leaq	-96(%rbp), %rax
	movq	%rax, %rcx
	call	_ZNSt10unique_ptrI7ExprASTSt14default_deleteIS0_EED1Ev
	cmpl	$1, %ebx
	jne	.L116
	.loc 7 187 0 is_stmt 1
	nop
.LBE31:
	.loc 7 204 0
	jmp	.L123
.L128:
	movq	%rax, %rbx
.LBB32:
	.loc 7 196 0
	leaq	-72(%rbp), %rax
	movq	%rax, %rcx
	call	_ZNSt10unique_ptrI7ExprASTSt14default_deleteIS0_EED1Ev
	jmp	.L126
.L127:
	movq	%rax, %rbx
.L126:
	.loc 7 187 0
	leaq	-96(%rbp), %rax
	movq	%rax, %rcx
	call	_ZNSt10unique_ptrI7ExprASTSt14default_deleteIS0_EED1Ev
	movq	%rbx, %rax
	movq	%rax, %rcx
.LEHB26:
	call	_Unwind_Resume
.LEHE26:
.L116:
.LBE32:
	.loc 7 205 0
	movq	-16(%rbp), %rax
	addq	$88, %rsp
	popq	%rbx
	.cfi_restore 3
	popq	%rbp
	.cfi_restore 6
	.cfi_def_cfa 7, -72
	ret
	.cfi_endproc
.LFE3051:
	.seh_handler	__gxx_personality_seh0, @unwind, @except
	.seh_handlerdata
.LLSDA3051:
	.byte	0xff
	.byte	0xff
	.byte	0x1
	.uleb128 .LLSDACSE3051-.LLSDACSB3051
.LLSDACSB3051:
	.uleb128 .LEHB22-.LFB3051
	.uleb128 .LEHE22-.LEHB22
	.uleb128 0
	.uleb128 0
	.uleb128 .LEHB23-.LFB3051
	.uleb128 .LEHE23-.LEHB23
	.uleb128 .L127-.LFB3051
	.uleb128 0
	.uleb128 .LEHB24-.LFB3051
	.uleb128 .LEHE24-.LEHB24
	.uleb128 .L128-.LFB3051
	.uleb128 0
	.uleb128 .LEHB25-.LFB3051
	.uleb128 .LEHE25-.LEHB25
	.uleb128 .L127-.LFB3051
	.uleb128 0
	.uleb128 .LEHB26-.LFB3051
	.uleb128 .LEHE26-.LEHB26
	.uleb128 0
	.uleb128 0
.LLSDACSE3051:
	.text
	.seh_endproc
	.section .rdata,"dr"
	.align 8
.LC7:
	.ascii "Expected function name in prototype\0"
.LC8:
	.ascii "Expected '(' in prototype\0"
.LC9:
	.ascii "Expected ')' in prototype\0"
	.text
	.def	_ZL14ParsePrototypev;	.scl	3;	.type	32;	.endef
	.seh_proc	_ZL14ParsePrototypev
_ZL14ParsePrototypev:
.LFB3052:
	.loc 7 210 0
	.cfi_startproc
	.cfi_personality 0x9b,.LDFCM0
	.cfi_lsda 0x1c,.LLSDA3052
	pushq	%rbp
	.seh_pushreg	%rbp
	.cfi_def_cfa_offset 16
	.cfi_offset 6, -16
	pushq	%rbx
	.seh_pushreg	%rbx
	.cfi_def_cfa_offset 24
	.cfi_offset 3, -24
	subq	$104, %rsp
	.seh_stackalloc	104
	.cfi_def_cfa_offset 128
	leaq	128(%rsp), %rbp
	.seh_setframe	%rbp, 128
	.cfi_def_cfa 6, 0
	.seh_endprologue
	movq	%rcx, 0(%rbp)
	.loc 7 211 0
	movl	_ZL6CurTok(%rip), %eax
	cmpl	$-4, %eax
	je	.L131
	.loc 7 212 0
	movq	0(%rbp), %rax
	leaq	.LC7(%rip), %rdx
	movq	%rax, %rcx
.LEHB27:
	call	_Z9LogErrorPPKc
	jmp	.L130
.L131:
	.loc 7 214 0
	leaq	-64(%rbp), %rax
	leaq	_ZL13IdentifierStr(%rip), %rdx
	movq	%rax, %rcx
	call	_ZNSt7__cxx1112basic_stringIcSt11char_traitsIcESaIcEEC1ERKS4_
.LEHE27:
.LEHB28:
	.loc 7 215 0
	call	_ZL12getNextTokenv
	.loc 7 217 0
	movl	_ZL6CurTok(%rip), %eax
	cmpl	$40, %eax
	je	.L133
	.loc 7 218 0
	movq	0(%rbp), %rax
	leaq	.LC8(%rip), %rdx
	movq	%rax, %rcx
	call	_Z9LogErrorPPKc
.LEHE28:
	jmp	.L134
.L133:
	.loc 7 221 0
	leaq	-96(%rbp), %rax
	movq	%rax, %rcx
	call	_ZNSt6vectorINSt7__cxx1112basic_stringIcSt11char_traitsIcESaIcEEESaIS5_EEC1Ev
.L136:
.LEHB29:
	.loc 7 222 0
	call	_ZL12getNextTokenv
	cmpl	$-4, %eax
	sete	%al
	testb	%al, %al
	je	.L135
	.loc 7 223 0
	leaq	-96(%rbp), %rax
	leaq	_ZL13IdentifierStr(%rip), %rdx
	movq	%rax, %rcx
	call	_ZNSt6vectorINSt7__cxx1112basic_stringIcSt11char_traitsIcESaIcEEESaIS5_EE9push_backERKS5_
	.loc 7 222 0
	jmp	.L136
.L135:
	.loc 7 224 0
	movl	_ZL6CurTok(%rip), %eax
	cmpl	$41, %eax
	je	.L137
	.loc 7 225 0
	movq	0(%rbp), %rax
	leaq	.LC9(%rip), %rdx
	movq	%rax, %rcx
	call	_Z9LogErrorPPKc
	jmp	.L138
.L137:
	.loc 7 228 0
	call	_ZL12getNextTokenv
	.loc 7 230 0
	leaq	-96(%rbp), %rax
	movq	%rax, %rcx
	call	_ZSt4moveIRSt6vectorINSt7__cxx1112basic_stringIcSt11char_traitsIcESaIcEEESaIS6_EEEONSt16remove_referenceIT_E4typeEOSB_
	movq	%rax, %rcx
	movq	0(%rbp), %rax
	leaq	-64(%rbp), %rdx
	movq	%rcx, %r8
	movq	%rax, %rcx
	call	_ZSt11make_uniqueI12PrototypeASTJRNSt7__cxx1112basic_stringIcSt11char_traitsIcESaIcEEESt6vectorIS6_SaIS6_EEEENSt9_MakeUniqIT_E15__single_objectEDpOT0_
.LEHE29:
.L138:
	.loc 7 221 0
	leaq	-96(%rbp), %rax
	movq	%rax, %rcx
	call	_ZNSt6vectorINSt7__cxx1112basic_stringIcSt11char_traitsIcESaIcEEESaIS5_EED1Ev
.L134:
	.loc 7 214 0
	leaq	-64(%rbp), %rax
	movq	%rax, %rcx
	call	_ZNSt7__cxx1112basic_stringIcSt11char_traitsIcESaIcEED1Ev
	jmp	.L130
.L143:
	movq	%rax, %rbx
	.loc 7 221 0
	leaq	-96(%rbp), %rax
	movq	%rax, %rcx
	call	_ZNSt6vectorINSt7__cxx1112basic_stringIcSt11char_traitsIcESaIcEEESaIS5_EED1Ev
	jmp	.L141
.L142:
	movq	%rax, %rbx
.L141:
	.loc 7 214 0
	leaq	-64(%rbp), %rax
	movq	%rax, %rcx
	call	_ZNSt7__cxx1112basic_stringIcSt11char_traitsIcESaIcEED1Ev
	movq	%rbx, %rax
	movq	%rax, %rcx
.LEHB30:
	call	_Unwind_Resume
.LEHE30:
.L130:
	.loc 7 231 0
	movq	0(%rbp), %rax
	addq	$104, %rsp
	popq	%rbx
	.cfi_restore 3
	popq	%rbp
	.cfi_restore 6
	.cfi_def_cfa 7, -88
	ret
	.cfi_endproc
.LFE3052:
	.seh_handler	__gxx_personality_seh0, @unwind, @except
	.seh_handlerdata
.LLSDA3052:
	.byte	0xff
	.byte	0xff
	.byte	0x1
	.uleb128 .LLSDACSE3052-.LLSDACSB3052
.LLSDACSB3052:
	.uleb128 .LEHB27-.LFB3052
	.uleb128 .LEHE27-.LEHB27
	.uleb128 0
	.uleb128 0
	.uleb128 .LEHB28-.LFB3052
	.uleb128 .LEHE28-.LEHB28
	.uleb128 .L142-.LFB3052
	.uleb128 0
	.uleb128 .LEHB29-.LFB3052
	.uleb128 .LEHE29-.LEHB29
	.uleb128 .L143-.LFB3052
	.uleb128 0
	.uleb128 .LEHB30-.LFB3052
	.uleb128 .LEHE30-.LEHB30
	.uleb128 0
	.uleb128 0
.LLSDACSE3052:
	.text
	.seh_endproc
	.def	_ZL15ParseDefinitionv;	.scl	3;	.type	32;	.endef
	.seh_proc	_ZL15ParseDefinitionv
_ZL15ParseDefinitionv:
.LFB3053:
	.loc 7 235 0
	.cfi_startproc
	.cfi_personality 0x9b,.LDFCM0
	.cfi_lsda 0x1c,.LLSDA3053
	pushq	%rbp
	.seh_pushreg	%rbp
	.cfi_def_cfa_offset 16
	.cfi_offset 6, -16
	pushq	%rbx
	.seh_pushreg	%rbx
	.cfi_def_cfa_offset 24
	.cfi_offset 3, -24
	subq	$56, %rsp
	.seh_stackalloc	56
	.cfi_def_cfa_offset 80
	leaq	128(%rsp), %rbp
	.seh_setframe	%rbp, 128
	.cfi_def_cfa 6, -48
	.seh_endprologue
	movq	%rcx, -48(%rbp)
.LEHB31:
	.loc 7 236 0
	call	_ZL12getNextTokenv
	.loc 7 237 0
	leaq	-88(%rbp), %rax
	movq	%rax, %rcx
	call	_ZL14ParsePrototypev
.LEHE31:
	.loc 7 238 0
	leaq	-88(%rbp), %rax
	movq	%rax, %rcx
	call	_ZNKSt10unique_ptrI12PrototypeASTSt14default_deleteIS0_EEcvbEv
	xorl	$1, %eax
	testb	%al, %al
	je	.L145
	.loc 7 239 0
	movl	$0, %edx
	movq	-48(%rbp), %rcx
	call	_ZNSt10unique_ptrI11FunctionASTSt14default_deleteIS0_EEC1IS2_vEEDn
	jmp	.L146
.L145:
.LBB33:
	.loc 7 241 0
	leaq	-96(%rbp), %rax
	movq	%rax, %rcx
.LEHB32:
	call	_ZL15ParseExpressionv
.LEHE32:
	.loc 7 241 0 is_stmt 0 discriminator 1
	leaq	-96(%rbp), %rax
	movq	%rax, %rcx
	call	_ZNKSt10unique_ptrI7ExprASTSt14default_deleteIS0_EEcvbEv
	testb	%al, %al
	je	.L147
	.loc 7 242 0 is_stmt 1
	leaq	-96(%rbp), %rax
	movq	%rax, %rcx
	call	_ZSt4moveIRSt10unique_ptrI7ExprASTSt14default_deleteIS1_EEEONSt16remove_referenceIT_E4typeEOS7_
	movq	%rax, %rbx
	leaq	-88(%rbp), %rax
	movq	%rax, %rcx
	call	_ZSt4moveIRSt10unique_ptrI12PrototypeASTSt14default_deleteIS1_EEEONSt16remove_referenceIT_E4typeEOS7_
	movq	%rax, %rdx
	movq	-48(%rbp), %rax
	movq	%rbx, %r8
	movq	%rax, %rcx
.LEHB33:
	call	_ZSt11make_uniqueI11FunctionASTJSt10unique_ptrI12PrototypeASTSt14default_deleteIS2_EES1_I7ExprASTS3_IS6_EEEENSt9_MakeUniqIT_E15__single_objectEDpOT0_
.LEHE33:
	movl	$0, %ebx
	jmp	.L148
.L147:
	movl	$1, %ebx
.L148:
	leaq	-96(%rbp), %rax
	movq	%rax, %rcx
	call	_ZNSt10unique_ptrI7ExprASTSt14default_deleteIS0_EED1Ev
	cmpl	$1, %ebx
	jne	.L146
	.loc 7 241 0
	nop
.LBE33:
	.loc 7 243 0
	movl	$0, %edx
	movq	-48(%rbp), %rcx
	call	_ZNSt10unique_ptrI11FunctionASTSt14default_deleteIS0_EEC1IS2_vEEDn
.L146:
	.loc 7 237 0
	leaq	-88(%rbp), %rax
	movq	%rax, %rcx
	call	_ZNSt10unique_ptrI12PrototypeASTSt14default_deleteIS0_EED1Ev
	jmp	.L157
.L155:
	movq	%rax, %rbx
.LBB34:
	.loc 7 241 0
	leaq	-96(%rbp), %rax
	movq	%rax, %rcx
	call	_ZNSt10unique_ptrI7ExprASTSt14default_deleteIS0_EED1Ev
	jmp	.L153
.L154:
	movq	%rax, %rbx
.L153:
.LBE34:
	.loc 7 237 0
	leaq	-88(%rbp), %rax
	movq	%rax, %rcx
	call	_ZNSt10unique_ptrI12PrototypeASTSt14default_deleteIS0_EED1Ev
	movq	%rbx, %rax
	movq	%rax, %rcx
.LEHB34:
	call	_Unwind_Resume
.LEHE34:
.L157:
	.loc 7 244 0
	movq	-48(%rbp), %rax
	addq	$56, %rsp
	popq	%rbx
	.cfi_restore 3
	popq	%rbp
	.cfi_restore 6
	.cfi_def_cfa 7, -40
	ret
	.cfi_endproc
.LFE3053:
	.seh_handler	__gxx_personality_seh0, @unwind, @except
	.seh_handlerdata
.LLSDA3053:
	.byte	0xff
	.byte	0xff
	.byte	0x1
	.uleb128 .LLSDACSE3053-.LLSDACSB3053
.LLSDACSB3053:
	.uleb128 .LEHB31-.LFB3053
	.uleb128 .LEHE31-.LEHB31
	.uleb128 0
	.uleb128 0
	.uleb128 .LEHB32-.LFB3053
	.uleb128 .LEHE32-.LEHB32
	.uleb128 .L154-.LFB3053
	.uleb128 0
	.uleb128 .LEHB33-.LFB3053
	.uleb128 .LEHE33-.LEHB33
	.uleb128 .L155-.LFB3053
	.uleb128 0
	.uleb128 .LEHB34-.LFB3053
	.uleb128 .LEHE34-.LEHB34
	.uleb128 0
	.uleb128 0
.LLSDACSE3053:
	.text
	.seh_endproc
	.def	_ZL11ParseExternv;	.scl	3;	.type	32;	.endef
	.seh_proc	_ZL11ParseExternv
_ZL11ParseExternv:
.LFB3054:
	.loc 7 248 0
	.cfi_startproc
	pushq	%rbp
	.seh_pushreg	%rbp
	.cfi_def_cfa_offset 16
	.cfi_offset 6, -16
	movq	%rsp, %rbp
	.seh_setframe	%rbp, 0
	.cfi_def_cfa_register 6
	subq	$32, %rsp
	.seh_stackalloc	32
	.seh_endprologue
	movq	%rcx, 16(%rbp)
	.loc 7 249 0
	call	_ZL12getNextTokenv
	.loc 7 250 0
	movq	16(%rbp), %rax
	movq	%rax, %rcx
	call	_ZL14ParsePrototypev
	.loc 7 251 0
	movq	16(%rbp), %rax
	addq	$32, %rsp
	popq	%rbp
	.cfi_restore 6
	.cfi_def_cfa 7, 8
	ret
	.cfi_endproc
.LFE3054:
	.seh_endproc
	.section .rdata,"dr"
.LC10:
	.ascii "__anon_expr\0"
	.text
	.def	_ZL17ParseTopLevelExprv;	.scl	3;	.type	32;	.endef
	.seh_proc	_ZL17ParseTopLevelExprv
_ZL17ParseTopLevelExprv:
.LFB3055:
	.loc 7 255 0
	.cfi_startproc
	.cfi_personality 0x9b,.LDFCM0
	.cfi_lsda 0x1c,.LLSDA3055
	pushq	%rbp
	.seh_pushreg	%rbp
	.cfi_def_cfa_offset 16
	.cfi_offset 6, -16
	pushq	%rbx
	.seh_pushreg	%rbx
	.cfi_def_cfa_offset 24
	.cfi_offset 3, -24
	subq	$88, %rsp
	.seh_stackalloc	88
	.cfi_def_cfa_offset 112
	leaq	128(%rsp), %rbp
	.seh_setframe	%rbp, 128
	.cfi_def_cfa 6, -16
	.seh_endprologue
	movq	%rcx, -16(%rbp)
.LBB35:
	.loc 7 256 0
	leaq	-88(%rbp), %rax
	movq	%rax, %rcx
.LEHB35:
	call	_ZL15ParseExpressionv
.LEHE35:
	leaq	-88(%rbp), %rax
	movq	%rax, %rcx
	call	_ZNKSt10unique_ptrI7ExprASTSt14default_deleteIS0_EEcvbEv
	testb	%al, %al
	je	.L161
.LBB36:
	.loc 7 260 0
	leaq	-80(%rbp), %rax
	movq	%rax, %rcx
	call	_ZNSt6vectorINSt7__cxx1112basic_stringIcSt11char_traitsIcESaIcEEESaIS5_EEC1Ev
	leaq	-96(%rbp), %rax
	leaq	-80(%rbp), %rdx
	movq	%rdx, %r8
	leaq	.LC10(%rip), %rdx
	movq	%rax, %rcx
.LEHB36:
	call	_ZSt11make_uniqueI12PrototypeASTJRA12_KcSt6vectorINSt7__cxx1112basic_stringIcSt11char_traitsIcESaIcEEESaISA_EEEENSt9_MakeUniqIT_E15__single_objectEDpOT0_
.LEHE36:
	leaq	-80(%rbp), %rax
	movq	%rax, %rcx
	call	_ZNSt6vectorINSt7__cxx1112basic_stringIcSt11char_traitsIcESaIcEEESaIS5_EED1Ev
	.loc 7 261 0
	leaq	-88(%rbp), %rax
	movq	%rax, %rcx
	call	_ZSt4moveIRSt10unique_ptrI7ExprASTSt14default_deleteIS1_EEEONSt16remove_referenceIT_E4typeEOS7_
	movq	%rax, %rbx
	leaq	-96(%rbp), %rax
	movq	%rax, %rcx
	call	_ZSt4moveIRSt10unique_ptrI12PrototypeASTSt14default_deleteIS1_EEEONSt16remove_referenceIT_E4typeEOS7_
	movq	%rax, %rdx
	movq	-16(%rbp), %rax
	movq	%rbx, %r8
	movq	%rax, %rcx
.LEHB37:
	call	_ZSt11make_uniqueI11FunctionASTJSt10unique_ptrI12PrototypeASTSt14default_deleteIS2_EES1_I7ExprASTS3_IS6_EEEENSt9_MakeUniqIT_E15__single_objectEDpOT0_
.LEHE37:
	nop
	.loc 7 260 0
	leaq	-96(%rbp), %rax
	movq	%rax, %rcx
	call	_ZNSt10unique_ptrI12PrototypeASTSt14default_deleteIS0_EED1Ev
	movl	$0, %ebx
	jmp	.L162
.L161:
	movl	$1, %ebx
.L162:
.LBE36:
	leaq	-88(%rbp), %rax
	movq	%rax, %rcx
	call	_ZNSt10unique_ptrI7ExprASTSt14default_deleteIS0_EED1Ev
	cmpl	$1, %ebx
	jne	.L160
	.loc 7 256 0
	nop
.LBE35:
	.loc 7 263 0
	movl	$0, %edx
	movq	-16(%rbp), %rcx
	call	_ZNSt10unique_ptrI11FunctionASTSt14default_deleteIS0_EEC1IS2_vEEDn
	jmp	.L160
.L169:
	movq	%rax, %rbx
.LBB38:
.LBB37:
	leaq	-80(%rbp), %rax
	movq	%rax, %rcx
	call	_ZNSt6vectorINSt7__cxx1112basic_stringIcSt11char_traitsIcESaIcEEESaIS5_EED1Ev
	jmp	.L167
.L170:
	movq	%rax, %rbx
	.loc 7 260 0
	leaq	-96(%rbp), %rax
	movq	%rax, %rcx
	call	_ZNSt10unique_ptrI12PrototypeASTSt14default_deleteIS0_EED1Ev
.L167:
.LBE37:
	.loc 7 256 0
	leaq	-88(%rbp), %rax
	movq	%rax, %rcx
	call	_ZNSt10unique_ptrI7ExprASTSt14default_deleteIS0_EED1Ev
	movq	%rbx, %rax
	movq	%rax, %rcx
.LEHB38:
	call	_Unwind_Resume
.LEHE38:
.L160:
.LBE38:
	.loc 7 264 0
	movq	-16(%rbp), %rax
	addq	$88, %rsp
	popq	%rbx
	.cfi_restore 3
	popq	%rbp
	.cfi_restore 6
	.cfi_def_cfa 7, -72
	ret
	.cfi_endproc
.LFE3055:
	.seh_handler	__gxx_personality_seh0, @unwind, @except
	.seh_handlerdata
.LLSDA3055:
	.byte	0xff
	.byte	0xff
	.byte	0x1
	.uleb128 .LLSDACSE3055-.LLSDACSB3055
.LLSDACSB3055:
	.uleb128 .LEHB35-.LFB3055
	.uleb128 .LEHE35-.LEHB35
	.uleb128 0
	.uleb128 0
	.uleb128 .LEHB36-.LFB3055
	.uleb128 .LEHE36-.LEHB36
	.uleb128 .L169-.LFB3055
	.uleb128 0
	.uleb128 .LEHB37-.LFB3055
	.uleb128 .LEHE37-.LEHB37
	.uleb128 .L170-.LFB3055
	.uleb128 0
	.uleb128 .LEHB38-.LFB3055
	.uleb128 .LEHE38-.LEHB38
	.uleb128 0
	.uleb128 0
.LLSDACSE3055:
	.text
	.seh_endproc
	.section .rdata,"dr"
	.align 8
.LC11:
	.ascii "Parsed a function definition.\12\0"
	.text
	.def	_ZL16HandleDefinitionv;	.scl	3;	.type	32;	.endef
	.seh_proc	_ZL16HandleDefinitionv
_ZL16HandleDefinitionv:
.LFB3056:
	.file 9 "include/driver/driver.cxx"
	.loc 9 17 0
	.cfi_startproc
	pushq	%rbp
	.seh_pushreg	%rbp
	.cfi_def_cfa_offset 16
	.cfi_offset 6, -16
	pushq	%rbx
	.seh_pushreg	%rbx
	.cfi_def_cfa_offset 24
	.cfi_offset 3, -24
	subq	$56, %rsp
	.seh_stackalloc	56
	.cfi_def_cfa_offset 80
	leaq	128(%rsp), %rbp
	.seh_setframe	%rbp, 128
	.cfi_def_cfa 6, -48
	.seh_endprologue
	.loc 9 18 0
	leaq	-88(%rbp), %rax
	movq	%rax, %rcx
	call	_ZL15ParseDefinitionv
	leaq	-88(%rbp), %rax
	movq	%rax, %rcx
	call	_ZNKSt10unique_ptrI11FunctionASTSt14default_deleteIS0_EEcvbEv
	movl	%eax, %ebx
	leaq	-88(%rbp), %rax
	movq	%rax, %rcx
	call	_ZNSt10unique_ptrI11FunctionASTSt14default_deleteIS0_EED1Ev
	testb	%bl, %bl
	je	.L173
	.loc 9 20 0
	movq	__imp___iob_func(%rip), %rax
	call	*%rax
.LVL4:
	.loc 9 20 0
	addq	$96, %rax
	leaq	.LC11(%rip), %rdx
	movq	%rax, %rcx
	call	_Z7fprintfP6_iobufPKcz
	.loc 9 27 0
	jmp	.L175
.L173:
	.loc 9 25 0
	call	_ZL12getNextTokenv
.L175:
	.loc 9 27 0
	nop
	addq	$56, %rsp
	popq	%rbx
	.cfi_restore 3
	popq	%rbp
	.cfi_restore 6
	.cfi_def_cfa 7, -40
	ret
	.cfi_endproc
.LFE3056:
	.seh_endproc
	.section .rdata,"dr"
.LC12:
	.ascii "Parsed an extern\12\0"
	.text
	.def	_ZL12HandleExternv;	.scl	3;	.type	32;	.endef
	.seh_proc	_ZL12HandleExternv
_ZL12HandleExternv:
.LFB3057:
	.loc 9 30 0
	.cfi_startproc
	pushq	%rbp
	.seh_pushreg	%rbp
	.cfi_def_cfa_offset 16
	.cfi_offset 6, -16
	pushq	%rbx
	.seh_pushreg	%rbx
	.cfi_def_cfa_offset 24
	.cfi_offset 3, -24
	subq	$56, %rsp
	.seh_stackalloc	56
	.cfi_def_cfa_offset 80
	leaq	128(%rsp), %rbp
	.seh_setframe	%rbp, 128
	.cfi_def_cfa 6, -48
	.seh_endprologue
	.loc 9 31 0
	leaq	-88(%rbp), %rax
	movq	%rax, %rcx
	call	_ZL11ParseExternv
	leaq	-88(%rbp), %rax
	movq	%rax, %rcx
	call	_ZNKSt10unique_ptrI12PrototypeASTSt14default_deleteIS0_EEcvbEv
	movl	%eax, %ebx
	leaq	-88(%rbp), %rax
	movq	%rax, %rcx
	call	_ZNSt10unique_ptrI12PrototypeASTSt14default_deleteIS0_EED1Ev
	testb	%bl, %bl
	je	.L177
	.loc 9 33 0
	movq	__imp___iob_func(%rip), %rax
	call	*%rax
.LVL5:
	.loc 9 33 0
	addq	$96, %rax
	leaq	.LC12(%rip), %rdx
	movq	%rax, %rcx
	call	_Z7fprintfP6_iobufPKcz
	.loc 9 40 0
	jmp	.L179
.L177:
	.loc 9 38 0
	call	_ZL12getNextTokenv
.L179:
	.loc 9 40 0
	nop
	addq	$56, %rsp
	popq	%rbx
	.cfi_restore 3
	popq	%rbp
	.cfi_restore 6
	.cfi_def_cfa 7, -40
	ret
	.cfi_endproc
.LFE3057:
	.seh_endproc
	.section .rdata,"dr"
.LC13:
	.ascii "Parsed a top-level expr\12\0"
	.text
	.def	_ZL24HandleTopLevelExpressionv;	.scl	3;	.type	32;	.endef
	.seh_proc	_ZL24HandleTopLevelExpressionv
_ZL24HandleTopLevelExpressionv:
.LFB3058:
	.loc 9 43 0
	.cfi_startproc
	pushq	%rbp
	.seh_pushreg	%rbp
	.cfi_def_cfa_offset 16
	.cfi_offset 6, -16
	pushq	%rbx
	.seh_pushreg	%rbx
	.cfi_def_cfa_offset 24
	.cfi_offset 3, -24
	subq	$56, %rsp
	.seh_stackalloc	56
	.cfi_def_cfa_offset 80
	leaq	128(%rsp), %rbp
	.seh_setframe	%rbp, 128
	.cfi_def_cfa 6, -48
	.seh_endprologue
	.loc 9 45 0
	leaq	-88(%rbp), %rax
	movq	%rax, %rcx
	call	_ZL17ParseTopLevelExprv
	leaq	-88(%rbp), %rax
	movq	%rax, %rcx
	call	_ZNKSt10unique_ptrI11FunctionASTSt14default_deleteIS0_EEcvbEv
	movl	%eax, %ebx
	leaq	-88(%rbp), %rax
	movq	%rax, %rcx
	call	_ZNSt10unique_ptrI11FunctionASTSt14default_deleteIS0_EED1Ev
	testb	%bl, %bl
	je	.L181
	.loc 9 47 0
	movq	__imp___iob_func(%rip), %rax
	call	*%rax
.LVL6:
	.loc 9 47 0
	addq	$96, %rax
	leaq	.LC13(%rip), %rdx
	movq	%rax, %rcx
	call	_Z7fprintfP6_iobufPKcz
	.loc 9 54 0
	jmp	.L183
.L181:
	.loc 9 52 0
	call	_ZL12getNextTokenv
.L183:
	.loc 9 54 0
	nop
	addq	$56, %rsp
	popq	%rbx
	.cfi_restore 3
	popq	%rbp
	.cfi_restore 6
	.cfi_def_cfa 7, -40
	ret
	.cfi_endproc
.LFE3058:
	.seh_endproc
	.section .rdata,"dr"
.LC14:
	.ascii "ready> \0"
	.text
	.def	_ZL8MainLoopv;	.scl	3;	.type	32;	.endef
	.seh_proc	_ZL8MainLoopv
_ZL8MainLoopv:
.LFB3059:
	.loc 9 58 0
	.cfi_startproc
	pushq	%rbp
	.seh_pushreg	%rbp
	.cfi_def_cfa_offset 16
	.cfi_offset 6, -16
	movq	%rsp, %rbp
	.seh_setframe	%rbp, 0
	.cfi_def_cfa_register 6
	subq	$32, %rsp
	.seh_stackalloc	32
	.seh_endprologue
.L193:
	.loc 9 61 0
	movq	__imp___iob_func(%rip), %rax
	call	*%rax
.LVL7:
	.loc 9 61 0
	addq	$96, %rax
	leaq	.LC14(%rip), %rdx
	movq	%rax, %rcx
	call	_Z7fprintfP6_iobufPKcz
	.loc 9 62 0
	movl	_ZL6CurTok(%rip), %eax
	cmpl	$-2, %eax
	je	.L186
	cmpl	$-2, %eax
	jg	.L187
	cmpl	$-3, %eax
	je	.L188
	jmp	.L185
.L187:
	cmpl	$-1, %eax
	je	.L194
	cmpl	$59, %eax
	jne	.L185
	.loc 9 67 0
	call	_ZL12getNextTokenv
	.loc 9 68 0
	jmp	.L192
.L186:
	.loc 9 70 0
	call	_ZL16HandleDefinitionv
	.loc 9 71 0
	jmp	.L192
.L188:
	.loc 9 73 0
	call	_ZL12HandleExternv
	.loc 9 74 0
	jmp	.L192
.L185:
	.loc 9 76 0
	call	_ZL24HandleTopLevelExpressionv
	.loc 9 77 0
	nop
.L192:
	.loc 9 61 0
	jmp	.L193
.L194:
	.loc 9 65 0
	nop
	.loc 9 82 0
	addq	$32, %rsp
	popq	%rbp
	.cfi_restore 6
	.cfi_def_cfa 7, 8
	ret
	.cfi_endproc
.LFE3059:
	.seh_endproc
	.def	__main;	.scl	2;	.type	32;	.endef
	.globl	main
	.def	main;	.scl	2;	.type	32;	.endef
	.seh_proc	main
main:
.LFB3060:
	.file 10 "src/kaleidoscope_main.cpp"
	.loc 10 29 0
	.cfi_startproc
	pushq	%rbp
	.seh_pushreg	%rbp
	.cfi_def_cfa_offset 16
	.cfi_offset 6, -16
	movq	%rsp, %rbp
	.seh_setframe	%rbp, 0
	.cfi_def_cfa_register 6
	subq	$32, %rsp
	.seh_stackalloc	32
	.seh_endprologue
	.loc 10 29 0
	call	__main
.LVL8:
	.loc 10 30 0
	call	_Z26initialize_binopPrecedencev
	.loc 10 31 0
	call	_Z11test_driverv
	.loc 10 33 0
	movl	$0, %eax
	.loc 10 34 0
	addq	$32, %rsp
	popq	%rbp
	.cfi_restore 6
	.cfi_def_cfa 7, 8
	ret
	.cfi_endproc
.LFE3060:
	.seh_endproc
	.globl	_Z26initialize_binopPrecedencev
	.def	_Z26initialize_binopPrecedencev;	.scl	2;	.type	32;	.endef
	.seh_proc	_Z26initialize_binopPrecedencev
_Z26initialize_binopPrecedencev:
.LFB3061:
	.loc 10 40 0
	.cfi_startproc
	pushq	%rbp
	.seh_pushreg	%rbp
	.cfi_def_cfa_offset 16
	.cfi_offset 6, -16
	movq	%rsp, %rbp
	.seh_setframe	%rbp, 0
	.cfi_def_cfa_register 6
	subq	$48, %rsp
	.seh_stackalloc	48
	.seh_endprologue
	.loc 10 43 0
	movb	$60, -4(%rbp)
	leaq	-4(%rbp), %rax
	movq	%rax, %rdx
	leaq	_ZL15BinopPrecedence(%rip), %rcx
	call	_ZNSt3mapIciSt4lessIcESaISt4pairIKciEEEixEOc
	movl	$10, (%rax)
	.loc 10 44 0
	movb	$43, -3(%rbp)
	leaq	-3(%rbp), %rax
	movq	%rax, %rdx
	leaq	_ZL15BinopPrecedence(%rip), %rcx
	call	_ZNSt3mapIciSt4lessIcESaISt4pairIKciEEEixEOc
	movl	$20, (%rax)
	.loc 10 45 0
	movb	$45, -2(%rbp)
	leaq	-2(%rbp), %rax
	movq	%rax, %rdx
	leaq	_ZL15BinopPrecedence(%rip), %rcx
	call	_ZNSt3mapIciSt4lessIcESaISt4pairIKciEEEixEOc
	movl	$20, (%rax)
	.loc 10 46 0
	movb	$42, -1(%rbp)
	leaq	-1(%rbp), %rax
	movq	%rax, %rdx
	leaq	_ZL15BinopPrecedence(%rip), %rcx
	call	_ZNSt3mapIciSt4lessIcESaISt4pairIKciEEEixEOc
	movl	$40, (%rax)
	.loc 10 47 0
	nop
	addq	$48, %rsp
	popq	%rbp
	.cfi_restore 6
	.cfi_def_cfa 7, 8
	ret
	.cfi_endproc
.LFE3061:
	.seh_endproc
	.globl	_Z11test_driverv
	.def	_Z11test_driverv;	.scl	2;	.type	32;	.endef
	.seh_proc	_Z11test_driverv
_Z11test_driverv:
.LFB3062:
	.loc 10 50 0
	.cfi_startproc
	pushq	%rbp
	.seh_pushreg	%rbp
	.cfi_def_cfa_offset 16
	.cfi_offset 6, -16
	movq	%rsp, %rbp
	.seh_setframe	%rbp, 0
	.cfi_def_cfa_register 6
	subq	$32, %rsp
	.seh_stackalloc	32
	.seh_endprologue
	.loc 10 52 0
	movq	__imp___iob_func(%rip), %rax
	call	*%rax
.LVL9:
	.loc 10 52 0
	addq	$96, %rax
	leaq	.LC14(%rip), %rdx
	movq	%rax, %rcx
	call	_Z7fprintfP6_iobufPKcz
	.loc 10 53 0
	call	_ZL12getNextTokenv
	.loc 10 56 0
	call	_ZL8MainLoopv
	.loc 10 57 0
	nop
	addq	$32, %rsp
	popq	%rbp
	.cfi_restore 6
	.cfi_def_cfa 7, 8
	ret
	.cfi_endproc
.LFE3062:
	.seh_endproc
	.section .rdata,"dr"
.LC15:
	.ascii "tok = \0"
.LC16:
	.ascii ", iden = \0"
.LC17:
	.ascii ", val = \0"
	.text
	.globl	_Z10test_lexerv
	.def	_Z10test_lexerv;	.scl	2;	.type	32;	.endef
	.seh_proc	_Z10test_lexerv
_Z10test_lexerv:
.LFB3063:
	.loc 10 60 0
	.cfi_startproc
	pushq	%rbp
	.seh_pushreg	%rbp
	.cfi_def_cfa_offset 16
	.cfi_offset 6, -16
	movq	%rsp, %rbp
	.seh_setframe	%rbp, 0
	.cfi_def_cfa_register 6
	subq	$48, %rsp
	.seh_stackalloc	48
	.seh_endprologue
	.loc 10 61 0
	call	_ZL6gettokv
	movl	%eax, -4(%rbp)
	.loc 10 62 0
	leaq	.LC15(%rip), %rdx
	movq	.refptr._ZSt4cout(%rip), %rcx
	call	_ZStlsISt11char_traitsIcEERSt13basic_ostreamIcT_ES5_PKc
	movq	%rax, %rcx
	movl	-4(%rbp), %eax
	movl	%eax, %edx
	call	_ZNSolsEi
	leaq	.LC16(%rip), %rdx
	movq	%rax, %rcx
	call	_ZStlsISt11char_traitsIcEERSt13basic_ostreamIcT_ES5_PKc
	leaq	_ZL13IdentifierStr(%rip), %rdx
	movq	%rax, %rcx
	call	_ZStlsIcSt11char_traitsIcESaIcEERSt13basic_ostreamIT_T0_ES7_RKNSt7__cxx1112basic_stringIS4_S5_T1_EE
	leaq	.LC17(%rip), %rdx
	movq	%rax, %rcx
	call	_ZStlsISt11char_traitsIcEERSt13basic_ostreamIcT_ES5_PKc
	movsd	_ZL6NumVal(%rip), %xmm0
	movapd	%xmm0, %xmm1
	movq	%rax, %rcx
	call	_ZNSolsEd
	movq	.refptr._ZSt4endlIcSt11char_traitsIcEERSt13basic_ostreamIT_T0_ES6_(%rip), %rdx
	movq	%rax, %rcx
	call	_ZNSolsEPFRSoS_E
	.loc 10 63 0
	nop
	addq	$48, %rsp
	popq	%rbp
	.cfi_restore 6
	.cfi_def_cfa 7, 8
	ret
	.cfi_endproc
.LFE3063:
	.seh_endproc
	.section	.text$_ZSteqIcSt11char_traitsIcESaIcEEbRKNSt7__cxx1112basic_stringIT_T0_T1_EEPKS5_,"x"
	.linkonce discard
	.globl	_ZSteqIcSt11char_traitsIcESaIcEEbRKNSt7__cxx1112basic_stringIT_T0_T1_EEPKS5_
	.def	_ZSteqIcSt11char_traitsIcESaIcEEbRKNSt7__cxx1112basic_stringIT_T0_T1_EEPKS5_;	.scl	2;	.type	32;	.endef
	.seh_proc	_ZSteqIcSt11char_traitsIcESaIcEEbRKNSt7__cxx1112basic_stringIT_T0_T1_EEPKS5_
_ZSteqIcSt11char_traitsIcESaIcEEbRKNSt7__cxx1112basic_stringIT_T0_T1_EEPKS5_:
.LFB3299:
	.file 11 "E:/mingw64/lib/gcc/x86_64-w64-mingw32/7.2.0/include/c++/bits/basic_string.h"
	.loc 11 5841 0
	.cfi_startproc
	pushq	%rbp
	.seh_pushreg	%rbp
	.cfi_def_cfa_offset 16
	.cfi_offset 6, -16
	movq	%rsp, %rbp
	.seh_setframe	%rbp, 0
	.cfi_def_cfa_register 6
	subq	$32, %rsp
	.seh_stackalloc	32
	.seh_endprologue
	movq	%rcx, 16(%rbp)
	movq	%rdx, 24(%rbp)
	.loc 11 5843 0
	movq	24(%rbp), %rax
	movq	%rax, %rdx
	movq	16(%rbp), %rcx
	call	_ZNKSt7__cxx1112basic_stringIcSt11char_traitsIcESaIcEE7compareEPKc
	testl	%eax, %eax
	sete	%al
	addq	$32, %rsp
	popq	%rbp
	.cfi_restore 6
	.cfi_def_cfa 7, 8
	ret
	.cfi_endproc
.LFE3299:
	.seh_endproc
	.section	.text$_ZSt4moveIRSt10unique_ptrI7ExprASTSt14default_deleteIS1_EEEONSt16remove_referenceIT_E4typeEOS7_,"x"
	.linkonce discard
	.globl	_ZSt4moveIRSt10unique_ptrI7ExprASTSt14default_deleteIS1_EEEONSt16remove_referenceIT_E4typeEOS7_
	.def	_ZSt4moveIRSt10unique_ptrI7ExprASTSt14default_deleteIS1_EEEONSt16remove_referenceIT_E4typeEOS7_;	.scl	2;	.type	32;	.endef
	.seh_proc	_ZSt4moveIRSt10unique_ptrI7ExprASTSt14default_deleteIS1_EEEONSt16remove_referenceIT_E4typeEOS7_
_ZSt4moveIRSt10unique_ptrI7ExprASTSt14default_deleteIS1_EEEONSt16remove_referenceIT_E4typeEOS7_:
.LFB3306:
	.file 12 "E:/mingw64/lib/gcc/x86_64-w64-mingw32/7.2.0/include/c++/bits/move.h"
	.loc 12 98 0
	.cfi_startproc
	pushq	%rbp
	.seh_pushreg	%rbp
	.cfi_def_cfa_offset 16
	.cfi_offset 6, -16
	movq	%rsp, %rbp
	.seh_setframe	%rbp, 0
	.cfi_def_cfa_register 6
	.seh_endprologue
	movq	%rcx, 16(%rbp)
	.loc 12 99 0
	movq	16(%rbp), %rax
	popq	%rbp
	.cfi_restore 6
	.cfi_def_cfa 7, 8
	ret
	.cfi_endproc
.LFE3306:
	.seh_endproc
	.section	.text$_ZNSt10unique_ptrI7ExprASTSt14default_deleteIS0_EEC1EOS3_,"x"
	.linkonce discard
	.align 2
	.globl	_ZNSt10unique_ptrI7ExprASTSt14default_deleteIS0_EEC1EOS3_
	.def	_ZNSt10unique_ptrI7ExprASTSt14default_deleteIS0_EEC1EOS3_;	.scl	2;	.type	32;	.endef
	.seh_proc	_ZNSt10unique_ptrI7ExprASTSt14default_deleteIS0_EEC1EOS3_
_ZNSt10unique_ptrI7ExprASTSt14default_deleteIS0_EEC1EOS3_:
.LFB3313:
	.file 13 "E:/mingw64/lib/gcc/x86_64-w64-mingw32/7.2.0/include/c++/bits/unique_ptr.h"
	.loc 13 238 0
	.cfi_startproc
	.cfi_personality 0x9b,.LDFCM0
	.cfi_lsda 0x1c,.LLSDA3313
	pushq	%rbp
	.seh_pushreg	%rbp
	.cfi_def_cfa_offset 16
	.cfi_offset 6, -16
	pushq	%rsi
	.seh_pushreg	%rsi
	.cfi_def_cfa_offset 24
	.cfi_offset 4, -24
	pushq	%rbx
	.seh_pushreg	%rbx
	.cfi_def_cfa_offset 32
	.cfi_offset 3, -32
	movq	%rsp, %rbp
	.seh_setframe	%rbp, 0
	.cfi_def_cfa_register 6
	subq	$32, %rsp
	.seh_stackalloc	32
	.seh_endprologue
	movq	%rcx, 32(%rbp)
	movq	%rdx, 40(%rbp)
.LBB39:
	.loc 13 239 0
	movq	32(%rbp), %rbx
	movq	40(%rbp), %rax
	movq	%rax, %rcx
	call	_ZNSt10unique_ptrI7ExprASTSt14default_deleteIS0_EE11get_deleterEv
	movq	%rax, %rcx
	call	_ZSt7forwardISt14default_deleteI7ExprASTEEOT_RNSt16remove_referenceIS3_E4typeE
	movq	%rax, %rsi
	movq	40(%rbp), %rax
	movq	%rax, %rcx
	call	_ZNSt10unique_ptrI7ExprASTSt14default_deleteIS0_EE7releaseEv
	movq	%rsi, %r8
	movq	%rax, %rdx
	movq	%rbx, %rcx
	call	_ZNSt15__uniq_ptr_implI7ExprASTSt14default_deleteIS0_EEC1IS2_EEPS0_OT_
.LBE39:
	nop
	addq	$32, %rsp
	popq	%rbx
	.cfi_restore 3
	popq	%rsi
	.cfi_restore 4
	popq	%rbp
	.cfi_restore 6
	.cfi_def_cfa 7, 24
	ret
	.cfi_endproc
.LFE3313:
	.seh_handler	__gxx_personality_seh0, @unwind, @except
	.seh_handlerdata
.LLSDA3313:
	.byte	0xff
	.byte	0xff
	.byte	0x1
	.uleb128 .LLSDACSE3313-.LLSDACSB3313
.LLSDACSB3313:
.LLSDACSE3313:
	.section	.text$_ZNSt10unique_ptrI7ExprASTSt14default_deleteIS0_EEC1EOS3_,"x"
	.linkonce discard
	.seh_endproc
	.section	.text$_ZNSt10unique_ptrI7ExprASTSt14default_deleteIS0_EED1Ev,"x"
	.linkonce discard
	.align 2
	.globl	_ZNSt10unique_ptrI7ExprASTSt14default_deleteIS0_EED1Ev
	.def	_ZNSt10unique_ptrI7ExprASTSt14default_deleteIS0_EED1Ev;	.scl	2;	.type	32;	.endef
	.seh_proc	_ZNSt10unique_ptrI7ExprASTSt14default_deleteIS0_EED1Ev
_ZNSt10unique_ptrI7ExprASTSt14default_deleteIS0_EED1Ev:
.LFB3316:
	.loc 13 264 0
	.cfi_startproc
	pushq	%rbp
	.seh_pushreg	%rbp
	.cfi_def_cfa_offset 16
	.cfi_offset 6, -16
	movq	%rsp, %rbp
	.seh_setframe	%rbp, 0
	.cfi_def_cfa_register 6
	subq	$48, %rsp
	.seh_stackalloc	48
	.seh_endprologue
	movq	%rcx, 16(%rbp)
.LBB40:
.LBB41:
	.loc 13 266 0
	movq	16(%rbp), %rax
	movq	%rax, %rcx
	call	_ZNSt15__uniq_ptr_implI7ExprASTSt14default_deleteIS0_EE6_M_ptrEv
	movq	%rax, -8(%rbp)
	.loc 13 267 0
	movq	-8(%rbp), %rax
	movq	(%rax), %rax
	testq	%rax, %rax
	je	.L206
	.loc 13 268 0
	movq	16(%rbp), %rcx
	call	_ZNSt10unique_ptrI7ExprASTSt14default_deleteIS0_EE11get_deleterEv
	movq	%rax, %rcx
	movq	-8(%rbp), %rax
	movq	(%rax), %rax
	movq	%rax, %rdx
	call	_ZNKSt14default_deleteI7ExprASTEclEPS0_
.L206:
	.loc 13 269 0
	movq	-8(%rbp), %rax
	movq	$0, (%rax)
.LBE41:
.LBE40:
	.loc 13 270 0
	nop
	addq	$48, %rsp
	popq	%rbp
	.cfi_restore 6
	.cfi_def_cfa 7, 8
	ret
	.cfi_endproc
.LFE3316:
	.seh_endproc
	.section	.text$_ZSt4moveIRSt6vectorISt10unique_ptrI7ExprASTSt14default_deleteIS2_EESaIS5_EEEONSt16remove_referenceIT_E4typeEOSA_,"x"
	.linkonce discard
	.globl	_ZSt4moveIRSt6vectorISt10unique_ptrI7ExprASTSt14default_deleteIS2_EESaIS5_EEEONSt16remove_referenceIT_E4typeEOSA_
	.def	_ZSt4moveIRSt6vectorISt10unique_ptrI7ExprASTSt14default_deleteIS2_EESaIS5_EEEONSt16remove_referenceIT_E4typeEOSA_;	.scl	2;	.type	32;	.endef
	.seh_proc	_ZSt4moveIRSt6vectorISt10unique_ptrI7ExprASTSt14default_deleteIS2_EESaIS5_EEEONSt16remove_referenceIT_E4typeEOSA_
_ZSt4moveIRSt6vectorISt10unique_ptrI7ExprASTSt14default_deleteIS2_EESaIS5_EEEONSt16remove_referenceIT_E4typeEOSA_:
.LFB3317:
	.loc 12 98 0
	.cfi_startproc
	pushq	%rbp
	.seh_pushreg	%rbp
	.cfi_def_cfa_offset 16
	.cfi_offset 6, -16
	movq	%rsp, %rbp
	.seh_setframe	%rbp, 0
	.cfi_def_cfa_register 6
	.seh_endprologue
	movq	%rcx, 16(%rbp)
	.loc 12 99 0
	movq	16(%rbp), %rax
	popq	%rbp
	.cfi_restore 6
	.cfi_def_cfa 7, 8
	ret
	.cfi_endproc
.LFE3317:
	.seh_endproc
	.section	.text$_ZNSt6vectorISt10unique_ptrI7ExprASTSt14default_deleteIS1_EESaIS4_EEC1EOS6_,"x"
	.linkonce discard
	.align 2
	.globl	_ZNSt6vectorISt10unique_ptrI7ExprASTSt14default_deleteIS1_EESaIS4_EEC1EOS6_
	.def	_ZNSt6vectorISt10unique_ptrI7ExprASTSt14default_deleteIS1_EESaIS4_EEC1EOS6_;	.scl	2;	.type	32;	.endef
	.seh_proc	_ZNSt6vectorISt10unique_ptrI7ExprASTSt14default_deleteIS1_EESaIS4_EEC1EOS6_
_ZNSt6vectorISt10unique_ptrI7ExprASTSt14default_deleteIS1_EESaIS4_EEC1EOS6_:
.LFB3320:
	.file 14 "E:/mingw64/lib/gcc/x86_64-w64-mingw32/7.2.0/include/c++/bits/stl_vector.h"
	.loc 14 344 0
	.cfi_startproc
	pushq	%rbp
	.seh_pushreg	%rbp
	.cfi_def_cfa_offset 16
	.cfi_offset 6, -16
	pushq	%rbx
	.seh_pushreg	%rbx
	.cfi_def_cfa_offset 24
	.cfi_offset 3, -24
	subq	$40, %rsp
	.seh_stackalloc	40
	.cfi_def_cfa_offset 64
	leaq	128(%rsp), %rbp
	.seh_setframe	%rbp, 128
	.cfi_def_cfa 6, -64
	.seh_endprologue
	movq	%rcx, -64(%rbp)
	movq	%rdx, -56(%rbp)
.LBB42:
	.loc 14 345 0
	movq	-64(%rbp), %rbx
	movq	-56(%rbp), %rax
	movq	%rax, %rcx
	call	_ZSt4moveIRSt6vectorISt10unique_ptrI7ExprASTSt14default_deleteIS2_EESaIS5_EEEONSt16remove_referenceIT_E4typeEOSA_
	movq	%rax, %rdx
	movq	%rbx, %rcx
	call	_ZNSt12_Vector_baseISt10unique_ptrI7ExprASTSt14default_deleteIS1_EESaIS4_EEC2EOS6_
.LBE42:
	nop
	addq	$40, %rsp
	popq	%rbx
	.cfi_restore 3
	popq	%rbp
	.cfi_restore 6
	.cfi_def_cfa 7, -24
	ret
	.cfi_endproc
.LFE3320:
	.seh_endproc
	.section	.text$_ZNSt6vectorISt10unique_ptrI7ExprASTSt14default_deleteIS1_EESaIS4_EED1Ev,"x"
	.linkonce discard
	.align 2
	.globl	_ZNSt6vectorISt10unique_ptrI7ExprASTSt14default_deleteIS1_EESaIS4_EED1Ev
	.def	_ZNSt6vectorISt10unique_ptrI7ExprASTSt14default_deleteIS1_EESaIS4_EED1Ev;	.scl	2;	.type	32;	.endef
	.seh_proc	_ZNSt6vectorISt10unique_ptrI7ExprASTSt14default_deleteIS1_EESaIS4_EED1Ev
_ZNSt6vectorISt10unique_ptrI7ExprASTSt14default_deleteIS1_EESaIS4_EED1Ev:
.LFB3323:
	.loc 14 433 0
	.cfi_startproc
	.cfi_personality 0x9b,.LDFCM0
	.cfi_lsda 0x1c,.LLSDA3323
	pushq	%rbp
	.seh_pushreg	%rbp
	.cfi_def_cfa_offset 16
	.cfi_offset 6, -16
	movq	%rsp, %rbp
	.seh_setframe	%rbp, 0
	.cfi_def_cfa_register 6
	subq	$32, %rsp
	.seh_stackalloc	32
	.seh_endprologue
	movq	%rcx, 16(%rbp)
.LBB43:
	.loc 14 435 0
	movq	16(%rbp), %rax
	movq	%rax, %rcx
	call	_ZNSt12_Vector_baseISt10unique_ptrI7ExprASTSt14default_deleteIS1_EESaIS4_EE19_M_get_Tp_allocatorEv
	movq	%rax, %rcx
	.loc 14 434 0
	movq	16(%rbp), %rax
	movq	8(%rax), %rdx
	movq	16(%rbp), %rax
	movq	(%rax), %rax
	movq	%rcx, %r8
	movq	%rax, %rcx
	call	_ZSt8_DestroyIPSt10unique_ptrI7ExprASTSt14default_deleteIS1_EES4_EvT_S6_RSaIT0_E
	.loc 14 435 0
	movq	16(%rbp), %rax
	movq	%rax, %rcx
	call	_ZNSt12_Vector_baseISt10unique_ptrI7ExprASTSt14default_deleteIS1_EESaIS4_EED2Ev
.LBE43:
	nop
	addq	$32, %rsp
	popq	%rbp
	.cfi_restore 6
	.cfi_def_cfa 7, 8
	ret
	.cfi_endproc
.LFE3323:
	.seh_handler	__gxx_personality_seh0, @unwind, @except
	.seh_handlerdata
.LLSDA3323:
	.byte	0xff
	.byte	0xff
	.byte	0x1
	.uleb128 .LLSDACSE3323-.LLSDACSB3323
.LLSDACSB3323:
.LLSDACSE3323:
	.section	.text$_ZNSt6vectorISt10unique_ptrI7ExprASTSt14default_deleteIS1_EESaIS4_EED1Ev,"x"
	.linkonce discard
	.seh_endproc
	.section	.text$_ZSt4moveIRSt6vectorINSt7__cxx1112basic_stringIcSt11char_traitsIcESaIcEEESaIS6_EEEONSt16remove_referenceIT_E4typeEOSB_,"x"
	.linkonce discard
	.globl	_ZSt4moveIRSt6vectorINSt7__cxx1112basic_stringIcSt11char_traitsIcESaIcEEESaIS6_EEEONSt16remove_referenceIT_E4typeEOSB_
	.def	_ZSt4moveIRSt6vectorINSt7__cxx1112basic_stringIcSt11char_traitsIcESaIcEEESaIS6_EEEONSt16remove_referenceIT_E4typeEOSB_;	.scl	2;	.type	32;	.endef
	.seh_proc	_ZSt4moveIRSt6vectorINSt7__cxx1112basic_stringIcSt11char_traitsIcESaIcEEESaIS6_EEEONSt16remove_referenceIT_E4typeEOSB_
_ZSt4moveIRSt6vectorINSt7__cxx1112basic_stringIcSt11char_traitsIcESaIcEEESaIS6_EEEONSt16remove_referenceIT_E4typeEOSB_:
.LFB3324:
	.loc 12 98 0
	.cfi_startproc
	pushq	%rbp
	.seh_pushreg	%rbp
	.cfi_def_cfa_offset 16
	.cfi_offset 6, -16
	movq	%rsp, %rbp
	.seh_setframe	%rbp, 0
	.cfi_def_cfa_register 6
	.seh_endprologue
	movq	%rcx, 16(%rbp)
	.loc 12 99 0
	movq	16(%rbp), %rax
	popq	%rbp
	.cfi_restore 6
	.cfi_def_cfa 7, 8
	ret
	.cfi_endproc
.LFE3324:
	.seh_endproc
	.section	.text$_ZNSt6vectorINSt7__cxx1112basic_stringIcSt11char_traitsIcESaIcEEESaIS5_EEC1EOS7_,"x"
	.linkonce discard
	.align 2
	.globl	_ZNSt6vectorINSt7__cxx1112basic_stringIcSt11char_traitsIcESaIcEEESaIS5_EEC1EOS7_
	.def	_ZNSt6vectorINSt7__cxx1112basic_stringIcSt11char_traitsIcESaIcEEESaIS5_EEC1EOS7_;	.scl	2;	.type	32;	.endef
	.seh_proc	_ZNSt6vectorINSt7__cxx1112basic_stringIcSt11char_traitsIcESaIcEEESaIS5_EEC1EOS7_
_ZNSt6vectorINSt7__cxx1112basic_stringIcSt11char_traitsIcESaIcEEESaIS5_EEC1EOS7_:
.LFB3327:
	.loc 14 344 0
	.cfi_startproc
	pushq	%rbp
	.seh_pushreg	%rbp
	.cfi_def_cfa_offset 16
	.cfi_offset 6, -16
	pushq	%rbx
	.seh_pushreg	%rbx
	.cfi_def_cfa_offset 24
	.cfi_offset 3, -24
	subq	$40, %rsp
	.seh_stackalloc	40
	.cfi_def_cfa_offset 64
	leaq	128(%rsp), %rbp
	.seh_setframe	%rbp, 128
	.cfi_def_cfa 6, -64
	.seh_endprologue
	movq	%rcx, -64(%rbp)
	movq	%rdx, -56(%rbp)
.LBB44:
	.loc 14 345 0
	movq	-64(%rbp), %rbx
	movq	-56(%rbp), %rax
	movq	%rax, %rcx
	call	_ZSt4moveIRSt6vectorINSt7__cxx1112basic_stringIcSt11char_traitsIcESaIcEEESaIS6_EEEONSt16remove_referenceIT_E4typeEOSB_
	movq	%rax, %rdx
	movq	%rbx, %rcx
	call	_ZNSt12_Vector_baseINSt7__cxx1112basic_stringIcSt11char_traitsIcESaIcEEESaIS5_EEC2EOS7_
.LBE44:
	nop
	addq	$40, %rsp
	popq	%rbx
	.cfi_restore 3
	popq	%rbp
	.cfi_restore 6
	.cfi_def_cfa 7, -24
	ret
	.cfi_endproc
.LFE3327:
	.seh_endproc
	.section	.text$_ZNSt6vectorINSt7__cxx1112basic_stringIcSt11char_traitsIcESaIcEEESaIS5_EED1Ev,"x"
	.linkonce discard
	.align 2
	.globl	_ZNSt6vectorINSt7__cxx1112basic_stringIcSt11char_traitsIcESaIcEEESaIS5_EED1Ev
	.def	_ZNSt6vectorINSt7__cxx1112basic_stringIcSt11char_traitsIcESaIcEEESaIS5_EED1Ev;	.scl	2;	.type	32;	.endef
	.seh_proc	_ZNSt6vectorINSt7__cxx1112basic_stringIcSt11char_traitsIcESaIcEEESaIS5_EED1Ev
_ZNSt6vectorINSt7__cxx1112basic_stringIcSt11char_traitsIcESaIcEEESaIS5_EED1Ev:
.LFB3330:
	.loc 14 433 0
	.cfi_startproc
	.cfi_personality 0x9b,.LDFCM0
	.cfi_lsda 0x1c,.LLSDA3330
	pushq	%rbp
	.seh_pushreg	%rbp
	.cfi_def_cfa_offset 16
	.cfi_offset 6, -16
	movq	%rsp, %rbp
	.seh_setframe	%rbp, 0
	.cfi_def_cfa_register 6
	subq	$32, %rsp
	.seh_stackalloc	32
	.seh_endprologue
	movq	%rcx, 16(%rbp)
.LBB45:
	.loc 14 435 0
	movq	16(%rbp), %rax
	movq	%rax, %rcx
	call	_ZNSt12_Vector_baseINSt7__cxx1112basic_stringIcSt11char_traitsIcESaIcEEESaIS5_EE19_M_get_Tp_allocatorEv
	movq	%rax, %rcx
	.loc 14 434 0
	movq	16(%rbp), %rax
	movq	8(%rax), %rdx
	movq	16(%rbp), %rax
	movq	(%rax), %rax
	movq	%rcx, %r8
	movq	%rax, %rcx
	call	_ZSt8_DestroyIPNSt7__cxx1112basic_stringIcSt11char_traitsIcESaIcEEES5_EvT_S7_RSaIT0_E
	.loc 14 435 0
	movq	16(%rbp), %rax
	movq	%rax, %rcx
	call	_ZNSt12_Vector_baseINSt7__cxx1112basic_stringIcSt11char_traitsIcESaIcEEESaIS5_EED2Ev
.LBE45:
	nop
	addq	$32, %rsp
	popq	%rbp
	.cfi_restore 6
	.cfi_def_cfa 7, 8
	ret
	.cfi_endproc
.LFE3330:
	.seh_handler	__gxx_personality_seh0, @unwind, @except
	.seh_handlerdata
.LLSDA3330:
	.byte	0xff
	.byte	0xff
	.byte	0x1
	.uleb128 .LLSDACSE3330-.LLSDACSB3330
.LLSDACSB3330:
.LLSDACSE3330:
	.section	.text$_ZNSt6vectorINSt7__cxx1112basic_stringIcSt11char_traitsIcESaIcEEESaIS5_EED1Ev,"x"
	.linkonce discard
	.seh_endproc
	.section	.text$_ZSt4moveIRSt10unique_ptrI12PrototypeASTSt14default_deleteIS1_EEEONSt16remove_referenceIT_E4typeEOS7_,"x"
	.linkonce discard
	.globl	_ZSt4moveIRSt10unique_ptrI12PrototypeASTSt14default_deleteIS1_EEEONSt16remove_referenceIT_E4typeEOS7_
	.def	_ZSt4moveIRSt10unique_ptrI12PrototypeASTSt14default_deleteIS1_EEEONSt16remove_referenceIT_E4typeEOS7_;	.scl	2;	.type	32;	.endef
	.seh_proc	_ZSt4moveIRSt10unique_ptrI12PrototypeASTSt14default_deleteIS1_EEEONSt16remove_referenceIT_E4typeEOS7_
_ZSt4moveIRSt10unique_ptrI12PrototypeASTSt14default_deleteIS1_EEEONSt16remove_referenceIT_E4typeEOS7_:
.LFB3331:
	.loc 12 98 0
	.cfi_startproc
	pushq	%rbp
	.seh_pushreg	%rbp
	.cfi_def_cfa_offset 16
	.cfi_offset 6, -16
	movq	%rsp, %rbp
	.seh_setframe	%rbp, 0
	.cfi_def_cfa_register 6
	.seh_endprologue
	movq	%rcx, 16(%rbp)
	.loc 12 99 0
	movq	16(%rbp), %rax
	popq	%rbp
	.cfi_restore 6
	.cfi_def_cfa 7, 8
	ret
	.cfi_endproc
.LFE3331:
	.seh_endproc
	.section	.text$_ZNSt10unique_ptrI12PrototypeASTSt14default_deleteIS0_EEC1EOS3_,"x"
	.linkonce discard
	.align 2
	.globl	_ZNSt10unique_ptrI12PrototypeASTSt14default_deleteIS0_EEC1EOS3_
	.def	_ZNSt10unique_ptrI12PrototypeASTSt14default_deleteIS0_EEC1EOS3_;	.scl	2;	.type	32;	.endef
	.seh_proc	_ZNSt10unique_ptrI12PrototypeASTSt14default_deleteIS0_EEC1EOS3_
_ZNSt10unique_ptrI12PrototypeASTSt14default_deleteIS0_EEC1EOS3_:
.LFB3338:
	.loc 13 238 0
	.cfi_startproc
	.cfi_personality 0x9b,.LDFCM0
	.cfi_lsda 0x1c,.LLSDA3338
	pushq	%rbp
	.seh_pushreg	%rbp
	.cfi_def_cfa_offset 16
	.cfi_offset 6, -16
	pushq	%rsi
	.seh_pushreg	%rsi
	.cfi_def_cfa_offset 24
	.cfi_offset 4, -24
	pushq	%rbx
	.seh_pushreg	%rbx
	.cfi_def_cfa_offset 32
	.cfi_offset 3, -32
	movq	%rsp, %rbp
	.seh_setframe	%rbp, 0
	.cfi_def_cfa_register 6
	subq	$32, %rsp
	.seh_stackalloc	32
	.seh_endprologue
	movq	%rcx, 32(%rbp)
	movq	%rdx, 40(%rbp)
.LBB46:
	.loc 13 239 0
	movq	32(%rbp), %rbx
	movq	40(%rbp), %rax
	movq	%rax, %rcx
	call	_ZNSt10unique_ptrI12PrototypeASTSt14default_deleteIS0_EE11get_deleterEv
	movq	%rax, %rcx
	call	_ZSt7forwardISt14default_deleteI12PrototypeASTEEOT_RNSt16remove_referenceIS3_E4typeE
	movq	%rax, %rsi
	movq	40(%rbp), %rax
	movq	%rax, %rcx
	call	_ZNSt10unique_ptrI12PrototypeASTSt14default_deleteIS0_EE7releaseEv
	movq	%rsi, %r8
	movq	%rax, %rdx
	movq	%rbx, %rcx
	call	_ZNSt15__uniq_ptr_implI12PrototypeASTSt14default_deleteIS0_EEC1IS2_EEPS0_OT_
.LBE46:
	nop
	addq	$32, %rsp
	popq	%rbx
	.cfi_restore 3
	popq	%rsi
	.cfi_restore 4
	popq	%rbp
	.cfi_restore 6
	.cfi_def_cfa 7, 24
	ret
	.cfi_endproc
.LFE3338:
	.seh_handler	__gxx_personality_seh0, @unwind, @except
	.seh_handlerdata
.LLSDA3338:
	.byte	0xff
	.byte	0xff
	.byte	0x1
	.uleb128 .LLSDACSE3338-.LLSDACSB3338
.LLSDACSB3338:
.LLSDACSE3338:
	.section	.text$_ZNSt10unique_ptrI12PrototypeASTSt14default_deleteIS0_EEC1EOS3_,"x"
	.linkonce discard
	.seh_endproc
	.section	.text$_ZNSt10unique_ptrI12PrototypeASTSt14default_deleteIS0_EED1Ev,"x"
	.linkonce discard
	.align 2
	.globl	_ZNSt10unique_ptrI12PrototypeASTSt14default_deleteIS0_EED1Ev
	.def	_ZNSt10unique_ptrI12PrototypeASTSt14default_deleteIS0_EED1Ev;	.scl	2;	.type	32;	.endef
	.seh_proc	_ZNSt10unique_ptrI12PrototypeASTSt14default_deleteIS0_EED1Ev
_ZNSt10unique_ptrI12PrototypeASTSt14default_deleteIS0_EED1Ev:
.LFB3341:
	.loc 13 264 0
	.cfi_startproc
	pushq	%rbp
	.seh_pushreg	%rbp
	.cfi_def_cfa_offset 16
	.cfi_offset 6, -16
	movq	%rsp, %rbp
	.seh_setframe	%rbp, 0
	.cfi_def_cfa_register 6
	subq	$48, %rsp
	.seh_stackalloc	48
	.seh_endprologue
	movq	%rcx, 16(%rbp)
.LBB47:
.LBB48:
	.loc 13 266 0
	movq	16(%rbp), %rax
	movq	%rax, %rcx
	call	_ZNSt15__uniq_ptr_implI12PrototypeASTSt14default_deleteIS0_EE6_M_ptrEv
	movq	%rax, -8(%rbp)
	.loc 13 267 0
	movq	-8(%rbp), %rax
	movq	(%rax), %rax
	testq	%rax, %rax
	je	.L219
	.loc 13 268 0
	movq	16(%rbp), %rcx
	call	_ZNSt10unique_ptrI12PrototypeASTSt14default_deleteIS0_EE11get_deleterEv
	movq	%rax, %rcx
	movq	-8(%rbp), %rax
	movq	(%rax), %rax
	movq	%rax, %rdx
	call	_ZNKSt14default_deleteI12PrototypeASTEclEPS0_
.L219:
	.loc 13 269 0
	movq	-8(%rbp), %rax
	movq	$0, (%rax)
.LBE48:
.LBE47:
	.loc 13 270 0
	nop
	addq	$48, %rsp
	popq	%rbp
	.cfi_restore 6
	.cfi_def_cfa 7, 8
	ret
	.cfi_endproc
.LFE3341:
	.seh_endproc
	.section	.text$_ZNSt5tupleIJP7ExprASTSt14default_deleteIS0_EEEC1IS1_S3_Lb1EEEv,"x"
	.linkonce discard
	.align 2
	.globl	_ZNSt5tupleIJP7ExprASTSt14default_deleteIS0_EEEC1IS1_S3_Lb1EEEv
	.def	_ZNSt5tupleIJP7ExprASTSt14default_deleteIS0_EEEC1IS1_S3_Lb1EEEv;	.scl	2;	.type	32;	.endef
	.seh_proc	_ZNSt5tupleIJP7ExprASTSt14default_deleteIS0_EEEC1IS1_S3_Lb1EEEv
_ZNSt5tupleIJP7ExprASTSt14default_deleteIS0_EEEC1IS1_S3_Lb1EEEv:
.LFB3353:
	.file 15 "E:/mingw64/lib/gcc/x86_64-w64-mingw32/7.2.0/include/c++/tuple"
	.loc 15 919 0
	.cfi_startproc
	pushq	%rbp
	.seh_pushreg	%rbp
	.cfi_def_cfa_offset 16
	.cfi_offset 6, -16
	movq	%rsp, %rbp
	.seh_setframe	%rbp, 0
	.cfi_def_cfa_register 6
	subq	$32, %rsp
	.seh_stackalloc	32
	.seh_endprologue
	movq	%rcx, 16(%rbp)
.LBB49:
	.loc 15 920 0
	movq	16(%rbp), %rax
	movq	%rax, %rcx
	call	_ZNSt11_Tuple_implILy0EJP7ExprASTSt14default_deleteIS0_EEEC2Ev
.LBE49:
	nop
	addq	$32, %rsp
	popq	%rbp
	.cfi_restore 6
	.cfi_def_cfa 7, 8
	ret
	.cfi_endproc
.LFE3353:
	.seh_endproc
	.section	.text$_ZNSt15__uniq_ptr_implI7ExprASTSt14default_deleteIS0_EEC1Ev,"x"
	.linkonce discard
	.align 2
	.globl	_ZNSt15__uniq_ptr_implI7ExprASTSt14default_deleteIS0_EEC1Ev
	.def	_ZNSt15__uniq_ptr_implI7ExprASTSt14default_deleteIS0_EEC1Ev;	.scl	2;	.type	32;	.endef
	.seh_proc	_ZNSt15__uniq_ptr_implI7ExprASTSt14default_deleteIS0_EEC1Ev
_ZNSt15__uniq_ptr_implI7ExprASTSt14default_deleteIS0_EEC1Ev:
.LFB3355:
	.loc 13 139 0
	.cfi_startproc
	pushq	%rbp
	.seh_pushreg	%rbp
	.cfi_def_cfa_offset 16
	.cfi_offset 6, -16
	movq	%rsp, %rbp
	.seh_setframe	%rbp, 0
	.cfi_def_cfa_register 6
	subq	$32, %rsp
	.seh_stackalloc	32
	.seh_endprologue
	movq	%rcx, 16(%rbp)
.LBB50:
	.loc 13 139 0
	movq	16(%rbp), %rax
	movq	%rax, %rcx
	call	_ZNSt5tupleIJP7ExprASTSt14default_deleteIS0_EEEC1IS1_S3_Lb1EEEv
.LBE50:
	nop
	addq	$32, %rsp
	popq	%rbp
	.cfi_restore 6
	.cfi_def_cfa 7, 8
	ret
	.cfi_endproc
.LFE3355:
	.seh_endproc
	.section	.text$_ZNSt10unique_ptrI7ExprASTSt14default_deleteIS0_EEC1IS2_vEEv,"x"
	.linkonce discard
	.align 2
	.globl	_ZNSt10unique_ptrI7ExprASTSt14default_deleteIS0_EEC1IS2_vEEv
	.def	_ZNSt10unique_ptrI7ExprASTSt14default_deleteIS0_EEC1IS2_vEEv;	.scl	2;	.type	32;	.endef
	.seh_proc	_ZNSt10unique_ptrI7ExprASTSt14default_deleteIS0_EEC1IS2_vEEv
_ZNSt10unique_ptrI7ExprASTSt14default_deleteIS0_EEC1IS2_vEEv:
.LFB3357:
	.loc 13 188 0
	.cfi_startproc
	.cfi_personality 0x9b,.LDFCM0
	.cfi_lsda 0x1c,.LLSDA3357
	pushq	%rbp
	.seh_pushreg	%rbp
	.cfi_def_cfa_offset 16
	.cfi_offset 6, -16
	movq	%rsp, %rbp
	.seh_setframe	%rbp, 0
	.cfi_def_cfa_register 6
	subq	$32, %rsp
	.seh_stackalloc	32
	.seh_endprologue
	movq	%rcx, 16(%rbp)
.LBB51:
	.loc 13 189 0
	movq	16(%rbp), %rax
	movq	$0, (%rax)
	movq	16(%rbp), %rax
	movq	%rax, %rcx
	call	_ZNSt15__uniq_ptr_implI7ExprASTSt14default_deleteIS0_EEC1Ev
.LBE51:
	.loc 13 190 0
	nop
	addq	$32, %rsp
	popq	%rbp
	.cfi_restore 6
	.cfi_def_cfa 7, 8
	ret
	.cfi_endproc
.LFE3357:
	.seh_handler	__gxx_personality_seh0, @unwind, @except
	.seh_handlerdata
.LLSDA3357:
	.byte	0xff
	.byte	0xff
	.byte	0x1
	.uleb128 .LLSDACSE3357-.LLSDACSB3357
.LLSDACSB3357:
.LLSDACSE3357:
	.section	.text$_ZNSt10unique_ptrI7ExprASTSt14default_deleteIS0_EEC1IS2_vEEv,"x"
	.linkonce discard
	.seh_endproc
	.section	.text$_ZNSt10unique_ptrI7ExprASTSt14default_deleteIS0_EEC1IS2_vEEDn,"x"
	.linkonce discard
	.align 2
	.globl	_ZNSt10unique_ptrI7ExprASTSt14default_deleteIS0_EEC1IS2_vEEDn
	.def	_ZNSt10unique_ptrI7ExprASTSt14default_deleteIS0_EEC1IS2_vEEDn;	.scl	2;	.type	32;	.endef
	.seh_proc	_ZNSt10unique_ptrI7ExprASTSt14default_deleteIS0_EEC1IS2_vEEDn
_ZNSt10unique_ptrI7ExprASTSt14default_deleteIS0_EEC1IS2_vEEDn:
.LFB3359:
	.loc 13 233 0
	.cfi_startproc
	pushq	%rbp
	.seh_pushreg	%rbp
	.cfi_def_cfa_offset 16
	.cfi_offset 6, -16
	movq	%rsp, %rbp
	.seh_setframe	%rbp, 0
	.cfi_def_cfa_register 6
	subq	$32, %rsp
	.seh_stackalloc	32
	.seh_endprologue
	movq	%rcx, 16(%rbp)
	movq	%rdx, 24(%rbp)
.LBB52:
	.loc 13 233 0
	movq	16(%rbp), %rcx
	call	_ZNSt10unique_ptrI7ExprASTSt14default_deleteIS0_EEC1IS2_vEEv
.LBE52:
	nop
	addq	$32, %rsp
	popq	%rbp
	.cfi_restore 6
	.cfi_def_cfa 7, 8
	ret
	.cfi_endproc
.LFE3359:
	.seh_endproc
	.section	.text$_ZNSt5tupleIJP12PrototypeASTSt14default_deleteIS0_EEEC1IS1_S3_Lb1EEEv,"x"
	.linkonce discard
	.align 2
	.globl	_ZNSt5tupleIJP12PrototypeASTSt14default_deleteIS0_EEEC1IS1_S3_Lb1EEEv
	.def	_ZNSt5tupleIJP12PrototypeASTSt14default_deleteIS0_EEEC1IS1_S3_Lb1EEEv;	.scl	2;	.type	32;	.endef
	.seh_proc	_ZNSt5tupleIJP12PrototypeASTSt14default_deleteIS0_EEEC1IS1_S3_Lb1EEEv
_ZNSt5tupleIJP12PrototypeASTSt14default_deleteIS0_EEEC1IS1_S3_Lb1EEEv:
.LFB3365:
	.loc 15 919 0
	.cfi_startproc
	pushq	%rbp
	.seh_pushreg	%rbp
	.cfi_def_cfa_offset 16
	.cfi_offset 6, -16
	movq	%rsp, %rbp
	.seh_setframe	%rbp, 0
	.cfi_def_cfa_register 6
	subq	$32, %rsp
	.seh_stackalloc	32
	.seh_endprologue
	movq	%rcx, 16(%rbp)
.LBB53:
	.loc 15 920 0
	movq	16(%rbp), %rax
	movq	%rax, %rcx
	call	_ZNSt11_Tuple_implILy0EJP12PrototypeASTSt14default_deleteIS0_EEEC2Ev
.LBE53:
	nop
	addq	$32, %rsp
	popq	%rbp
	.cfi_restore 6
	.cfi_def_cfa 7, 8
	ret
	.cfi_endproc
.LFE3365:
	.seh_endproc
	.section	.text$_ZNSt15__uniq_ptr_implI12PrototypeASTSt14default_deleteIS0_EEC1Ev,"x"
	.linkonce discard
	.align 2
	.globl	_ZNSt15__uniq_ptr_implI12PrototypeASTSt14default_deleteIS0_EEC1Ev
	.def	_ZNSt15__uniq_ptr_implI12PrototypeASTSt14default_deleteIS0_EEC1Ev;	.scl	2;	.type	32;	.endef
	.seh_proc	_ZNSt15__uniq_ptr_implI12PrototypeASTSt14default_deleteIS0_EEC1Ev
_ZNSt15__uniq_ptr_implI12PrototypeASTSt14default_deleteIS0_EEC1Ev:
.LFB3367:
	.loc 13 139 0
	.cfi_startproc
	pushq	%rbp
	.seh_pushreg	%rbp
	.cfi_def_cfa_offset 16
	.cfi_offset 6, -16
	movq	%rsp, %rbp
	.seh_setframe	%rbp, 0
	.cfi_def_cfa_register 6
	subq	$32, %rsp
	.seh_stackalloc	32
	.seh_endprologue
	movq	%rcx, 16(%rbp)
.LBB54:
	.loc 13 139 0
	movq	16(%rbp), %rax
	movq	%rax, %rcx
	call	_ZNSt5tupleIJP12PrototypeASTSt14default_deleteIS0_EEEC1IS1_S3_Lb1EEEv
.LBE54:
	nop
	addq	$32, %rsp
	popq	%rbp
	.cfi_restore 6
	.cfi_def_cfa 7, 8
	ret
	.cfi_endproc
.LFE3367:
	.seh_endproc
	.section	.text$_ZNSt10unique_ptrI12PrototypeASTSt14default_deleteIS0_EEC1IS2_vEEv,"x"
	.linkonce discard
	.align 2
	.globl	_ZNSt10unique_ptrI12PrototypeASTSt14default_deleteIS0_EEC1IS2_vEEv
	.def	_ZNSt10unique_ptrI12PrototypeASTSt14default_deleteIS0_EEC1IS2_vEEv;	.scl	2;	.type	32;	.endef
	.seh_proc	_ZNSt10unique_ptrI12PrototypeASTSt14default_deleteIS0_EEC1IS2_vEEv
_ZNSt10unique_ptrI12PrototypeASTSt14default_deleteIS0_EEC1IS2_vEEv:
.LFB3369:
	.loc 13 188 0
	.cfi_startproc
	.cfi_personality 0x9b,.LDFCM0
	.cfi_lsda 0x1c,.LLSDA3369
	pushq	%rbp
	.seh_pushreg	%rbp
	.cfi_def_cfa_offset 16
	.cfi_offset 6, -16
	movq	%rsp, %rbp
	.seh_setframe	%rbp, 0
	.cfi_def_cfa_register 6
	subq	$32, %rsp
	.seh_stackalloc	32
	.seh_endprologue
	movq	%rcx, 16(%rbp)
.LBB55:
	.loc 13 189 0
	movq	16(%rbp), %rax
	movq	$0, (%rax)
	movq	16(%rbp), %rax
	movq	%rax, %rcx
	call	_ZNSt15__uniq_ptr_implI12PrototypeASTSt14default_deleteIS0_EEC1Ev
.LBE55:
	.loc 13 190 0
	nop
	addq	$32, %rsp
	popq	%rbp
	.cfi_restore 6
	.cfi_def_cfa 7, 8
	ret
	.cfi_endproc
.LFE3369:
	.seh_handler	__gxx_personality_seh0, @unwind, @except
	.seh_handlerdata
.LLSDA3369:
	.byte	0xff
	.byte	0xff
	.byte	0x1
	.uleb128 .LLSDACSE3369-.LLSDACSB3369
.LLSDACSB3369:
.LLSDACSE3369:
	.section	.text$_ZNSt10unique_ptrI12PrototypeASTSt14default_deleteIS0_EEC1IS2_vEEv,"x"
	.linkonce discard
	.seh_endproc
	.section	.text$_ZNSt10unique_ptrI12PrototypeASTSt14default_deleteIS0_EEC1IS2_vEEDn,"x"
	.linkonce discard
	.align 2
	.globl	_ZNSt10unique_ptrI12PrototypeASTSt14default_deleteIS0_EEC1IS2_vEEDn
	.def	_ZNSt10unique_ptrI12PrototypeASTSt14default_deleteIS0_EEC1IS2_vEEDn;	.scl	2;	.type	32;	.endef
	.seh_proc	_ZNSt10unique_ptrI12PrototypeASTSt14default_deleteIS0_EEC1IS2_vEEDn
_ZNSt10unique_ptrI12PrototypeASTSt14default_deleteIS0_EEC1IS2_vEEDn:
.LFB3371:
	.loc 13 233 0
	.cfi_startproc
	pushq	%rbp
	.seh_pushreg	%rbp
	.cfi_def_cfa_offset 16
	.cfi_offset 6, -16
	movq	%rsp, %rbp
	.seh_setframe	%rbp, 0
	.cfi_def_cfa_register 6
	subq	$32, %rsp
	.seh_stackalloc	32
	.seh_endprologue
	movq	%rcx, 16(%rbp)
	movq	%rdx, 24(%rbp)
.LBB56:
	.loc 13 233 0
	movq	16(%rbp), %rcx
	call	_ZNSt10unique_ptrI12PrototypeASTSt14default_deleteIS0_EEC1IS2_vEEv
.LBE56:
	nop
	addq	$32, %rsp
	popq	%rbp
	.cfi_restore 6
	.cfi_def_cfa 7, 8
	ret
	.cfi_endproc
.LFE3371:
	.seh_endproc
	.section	.text$_ZSt11make_uniqueI13NumberExprASTJRdEENSt9_MakeUniqIT_E15__single_objectEDpOT0_,"x"
	.linkonce discard
	.globl	_ZSt11make_uniqueI13NumberExprASTJRdEENSt9_MakeUniqIT_E15__single_objectEDpOT0_
	.def	_ZSt11make_uniqueI13NumberExprASTJRdEENSt9_MakeUniqIT_E15__single_objectEDpOT0_;	.scl	2;	.type	32;	.endef
	.seh_proc	_ZSt11make_uniqueI13NumberExprASTJRdEENSt9_MakeUniqIT_E15__single_objectEDpOT0_
_ZSt11make_uniqueI13NumberExprASTJRdEENSt9_MakeUniqIT_E15__single_objectEDpOT0_:
.LFB3372:
	.loc 13 824 0
	.cfi_startproc
	pushq	%rbp
	.seh_pushreg	%rbp
	.cfi_def_cfa_offset 16
	.cfi_offset 6, -16
	pushq	%rbx
	.seh_pushreg	%rbx
	.cfi_def_cfa_offset 24
	.cfi_offset 3, -24
	subq	$56, %rsp
	.seh_stackalloc	56
	.cfi_def_cfa_offset 80
	leaq	128(%rsp), %rbp
	.seh_setframe	%rbp, 128
	.cfi_def_cfa 6, -48
	movaps	%xmm6, -96(%rbp)
	.seh_savexmm	%xmm6, 32
	.cfi_offset 23, -48
	.seh_endprologue
	movq	%rcx, -48(%rbp)
	movq	%rdx, -40(%rbp)
	.loc 13 825 0
	movq	-40(%rbp), %rax
	movq	%rax, %rcx
	call	_ZSt7forwardIRdEOT_RNSt16remove_referenceIS1_E4typeE
	movsd	(%rax), %xmm6
	movl	$16, %ecx
	call	_Znwy
	movq	%rax, %rbx
	movapd	%xmm6, %xmm1
	movq	%rbx, %rcx
	call	_ZN13NumberExprASTC1Ed
	movq	%rbx, %rdx
	movq	-48(%rbp), %rcx
	call	_ZNSt10unique_ptrI13NumberExprASTSt14default_deleteIS0_EEC1IS2_vEEPS0_
	movq	-48(%rbp), %rax
	movaps	-96(%rbp), %xmm6
	addq	$56, %rsp
	.cfi_restore 23
	popq	%rbx
	.cfi_restore 3
	popq	%rbp
	.cfi_restore 6
	.cfi_def_cfa 7, -40
	ret
	.cfi_endproc
.LFE3372:
	.seh_endproc
	.section	.text$_ZNSt10unique_ptrI13NumberExprASTSt14default_deleteIS0_EED1Ev,"x"
	.linkonce discard
	.align 2
	.globl	_ZNSt10unique_ptrI13NumberExprASTSt14default_deleteIS0_EED1Ev
	.def	_ZNSt10unique_ptrI13NumberExprASTSt14default_deleteIS0_EED1Ev;	.scl	2;	.type	32;	.endef
	.seh_proc	_ZNSt10unique_ptrI13NumberExprASTSt14default_deleteIS0_EED1Ev
_ZNSt10unique_ptrI13NumberExprASTSt14default_deleteIS0_EED1Ev:
.LFB3375:
	.loc 13 264 0
	.cfi_startproc
	pushq	%rbp
	.seh_pushreg	%rbp
	.cfi_def_cfa_offset 16
	.cfi_offset 6, -16
	movq	%rsp, %rbp
	.seh_setframe	%rbp, 0
	.cfi_def_cfa_register 6
	subq	$48, %rsp
	.seh_stackalloc	48
	.seh_endprologue
	movq	%rcx, 16(%rbp)
.LBB57:
.LBB58:
	.loc 13 266 0
	movq	16(%rbp), %rax
	movq	%rax, %rcx
	call	_ZNSt15__uniq_ptr_implI13NumberExprASTSt14default_deleteIS0_EE6_M_ptrEv
	movq	%rax, -8(%rbp)
	.loc 13 267 0
	movq	-8(%rbp), %rax
	movq	(%rax), %rax
	testq	%rax, %rax
	je	.L231
	.loc 13 268 0
	movq	16(%rbp), %rcx
	call	_ZNSt10unique_ptrI13NumberExprASTSt14default_deleteIS0_EE11get_deleterEv
	movq	%rax, %rcx
	movq	-8(%rbp), %rax
	movq	(%rax), %rax
	movq	%rax, %rdx
	call	_ZNKSt14default_deleteI13NumberExprASTEclEPS0_
.L231:
	.loc 13 269 0
	movq	-8(%rbp), %rax
	movq	$0, (%rax)
.LBE58:
.LBE57:
	.loc 13 270 0
	nop
	addq	$48, %rsp
	popq	%rbp
	.cfi_restore 6
	.cfi_def_cfa 7, 8
	ret
	.cfi_endproc
.LFE3375:
	.seh_endproc
	.section	.text$_ZSt4moveIRSt10unique_ptrI13NumberExprASTSt14default_deleteIS1_EEEONSt16remove_referenceIT_E4typeEOS7_,"x"
	.linkonce discard
	.globl	_ZSt4moveIRSt10unique_ptrI13NumberExprASTSt14default_deleteIS1_EEEONSt16remove_referenceIT_E4typeEOS7_
	.def	_ZSt4moveIRSt10unique_ptrI13NumberExprASTSt14default_deleteIS1_EEEONSt16remove_referenceIT_E4typeEOS7_;	.scl	2;	.type	32;	.endef
	.seh_proc	_ZSt4moveIRSt10unique_ptrI13NumberExprASTSt14default_deleteIS1_EEEONSt16remove_referenceIT_E4typeEOS7_
_ZSt4moveIRSt10unique_ptrI13NumberExprASTSt14default_deleteIS1_EEEONSt16remove_referenceIT_E4typeEOS7_:
.LFB3383:
	.loc 12 98 0
	.cfi_startproc
	pushq	%rbp
	.seh_pushreg	%rbp
	.cfi_def_cfa_offset 16
	.cfi_offset 6, -16
	movq	%rsp, %rbp
	.seh_setframe	%rbp, 0
	.cfi_def_cfa_register 6
	.seh_endprologue
	movq	%rcx, 16(%rbp)
	.loc 12 99 0
	movq	16(%rbp), %rax
	popq	%rbp
	.cfi_restore 6
	.cfi_def_cfa 7, 8
	ret
	.cfi_endproc
.LFE3383:
	.seh_endproc
	.section	.text$_ZNSt10unique_ptrI7ExprASTSt14default_deleteIS0_EEC1I13NumberExprASTS1_IS5_EvEEOS_IT_T0_E,"x"
	.linkonce discard
	.align 2
	.globl	_ZNSt10unique_ptrI7ExprASTSt14default_deleteIS0_EEC1I13NumberExprASTS1_IS5_EvEEOS_IT_T0_E
	.def	_ZNSt10unique_ptrI7ExprASTSt14default_deleteIS0_EEC1I13NumberExprASTS1_IS5_EvEEOS_IT_T0_E;	.scl	2;	.type	32;	.endef
	.seh_proc	_ZNSt10unique_ptrI7ExprASTSt14default_deleteIS0_EEC1I13NumberExprASTS1_IS5_EvEEOS_IT_T0_E
_ZNSt10unique_ptrI7ExprASTSt14default_deleteIS0_EEC1I13NumberExprASTS1_IS5_EvEEOS_IT_T0_E:
.LFB3386:
	.loc 13 252 0
	.cfi_startproc
	.cfi_personality 0x9b,.LDFCM0
	.cfi_lsda 0x1c,.LLSDA3386
	pushq	%rbp
	.seh_pushreg	%rbp
	.cfi_def_cfa_offset 16
	.cfi_offset 6, -16
	pushq	%rsi
	.seh_pushreg	%rsi
	.cfi_def_cfa_offset 24
	.cfi_offset 4, -24
	pushq	%rbx
	.seh_pushreg	%rbx
	.cfi_def_cfa_offset 32
	.cfi_offset 3, -32
	movq	%rsp, %rbp
	.seh_setframe	%rbp, 0
	.cfi_def_cfa_register 6
	subq	$32, %rsp
	.seh_stackalloc	32
	.seh_endprologue
	movq	%rcx, 32(%rbp)
	movq	%rdx, 40(%rbp)
.LBB59:
	.loc 13 253 0
	movq	32(%rbp), %rbx
	movq	40(%rbp), %rax
	movq	%rax, %rcx
	call	_ZNSt10unique_ptrI13NumberExprASTSt14default_deleteIS0_EE11get_deleterEv
	movq	%rax, %rcx
	call	_ZSt7forwardISt14default_deleteI13NumberExprASTEEOT_RNSt16remove_referenceIS3_E4typeE
	movq	%rax, %rsi
	movq	40(%rbp), %rax
	movq	%rax, %rcx
	call	_ZNSt10unique_ptrI13NumberExprASTSt14default_deleteIS0_EE7releaseEv
	movq	%rsi, %r8
	movq	%rax, %rdx
	movq	%rbx, %rcx
	call	_ZNSt15__uniq_ptr_implI7ExprASTSt14default_deleteIS0_EEC1IS1_I13NumberExprASTEEEPS0_OT_
.LBE59:
	.loc 13 254 0
	nop
	addq	$32, %rsp
	popq	%rbx
	.cfi_restore 3
	popq	%rsi
	.cfi_restore 4
	popq	%rbp
	.cfi_restore 6
	.cfi_def_cfa 7, 24
	ret
	.cfi_endproc
.LFE3386:
	.seh_handler	__gxx_personality_seh0, @unwind, @except
	.seh_handlerdata
.LLSDA3386:
	.byte	0xff
	.byte	0xff
	.byte	0x1
	.uleb128 .LLSDACSE3386-.LLSDACSB3386
.LLSDACSB3386:
.LLSDACSE3386:
	.section	.text$_ZNSt10unique_ptrI7ExprASTSt14default_deleteIS0_EEC1I13NumberExprASTS1_IS5_EvEEOS_IT_T0_E,"x"
	.linkonce discard
	.seh_endproc
	.section	.text$_ZNKSt10unique_ptrI7ExprASTSt14default_deleteIS0_EEcvbEv,"x"
	.linkonce discard
	.align 2
	.globl	_ZNKSt10unique_ptrI7ExprASTSt14default_deleteIS0_EEcvbEv
	.def	_ZNKSt10unique_ptrI7ExprASTSt14default_deleteIS0_EEcvbEv;	.scl	2;	.type	32;	.endef
	.seh_proc	_ZNKSt10unique_ptrI7ExprASTSt14default_deleteIS0_EEcvbEv
_ZNKSt10unique_ptrI7ExprASTSt14default_deleteIS0_EEcvbEv:
.LFB3387:
	.loc 13 350 0
	.cfi_startproc
	pushq	%rbp
	.seh_pushreg	%rbp
	.cfi_def_cfa_offset 16
	.cfi_offset 6, -16
	movq	%rsp, %rbp
	.seh_setframe	%rbp, 0
	.cfi_def_cfa_register 6
	subq	$32, %rsp
	.seh_stackalloc	32
	.seh_endprologue
	movq	%rcx, 16(%rbp)
	.loc 13 351 0
	movq	16(%rbp), %rcx
	call	_ZNKSt10unique_ptrI7ExprASTSt14default_deleteIS0_EE3getEv
	testq	%rax, %rax
	setne	%al
	addq	$32, %rsp
	popq	%rbp
	.cfi_restore 6
	.cfi_def_cfa 7, 8
	ret
	.cfi_endproc
.LFE3387:
	.seh_endproc
	.section	.text$_ZSt11make_uniqueI15VariableExprASTJRNSt7__cxx1112basic_stringIcSt11char_traitsIcESaIcEEEEENSt9_MakeUniqIT_E15__single_objectEDpOT0_,"x"
	.linkonce discard
	.globl	_ZSt11make_uniqueI15VariableExprASTJRNSt7__cxx1112basic_stringIcSt11char_traitsIcESaIcEEEEENSt9_MakeUniqIT_E15__single_objectEDpOT0_
	.def	_ZSt11make_uniqueI15VariableExprASTJRNSt7__cxx1112basic_stringIcSt11char_traitsIcESaIcEEEEENSt9_MakeUniqIT_E15__single_objectEDpOT0_;	.scl	2;	.type	32;	.endef
	.seh_proc	_ZSt11make_uniqueI15VariableExprASTJRNSt7__cxx1112basic_stringIcSt11char_traitsIcESaIcEEEEENSt9_MakeUniqIT_E15__single_objectEDpOT0_
_ZSt11make_uniqueI15VariableExprASTJRNSt7__cxx1112basic_stringIcSt11char_traitsIcESaIcEEEEENSt9_MakeUniqIT_E15__single_objectEDpOT0_:
.LFB3388:
	.loc 13 824 0
	.cfi_startproc
	.cfi_personality 0x9b,.LDFCM0
	.cfi_lsda 0x1c,.LLSDA3388
	pushq	%rbp
	.seh_pushreg	%rbp
	.cfi_def_cfa_offset 16
	.cfi_offset 6, -16
	pushq	%rsi
	.seh_pushreg	%rsi
	.cfi_def_cfa_offset 24
	.cfi_offset 4, -24
	pushq	%rbx
	.seh_pushreg	%rbx
	.cfi_def_cfa_offset 32
	.cfi_offset 3, -32
	movq	%rsp, %rbp
	.seh_setframe	%rbp, 0
	.cfi_def_cfa_register 6
	subq	$32, %rsp
	.seh_stackalloc	32
	.seh_endprologue
	movq	%rcx, 32(%rbp)
	movq	%rdx, 40(%rbp)
	.loc 13 825 0
	movq	40(%rbp), %rax
	movq	%rax, %rcx
	call	_ZSt7forwardIRNSt7__cxx1112basic_stringIcSt11char_traitsIcESaIcEEEEOT_RNSt16remove_referenceIS7_E4typeE
	movq	%rax, %rsi
	movl	$40, %ecx
.LEHB39:
	call	_Znwy
.LEHE39:
	movq	%rax, %rbx
	movq	%rsi, %rdx
	movq	%rbx, %rcx
.LEHB40:
	call	_ZN15VariableExprASTC1ERKNSt7__cxx1112basic_stringIcSt11char_traitsIcESaIcEEE
.LEHE40:
	.loc 13 825 0 is_stmt 0 discriminator 2
	movq	%rbx, %rdx
	movq	32(%rbp), %rcx
	call	_ZNSt10unique_ptrI15VariableExprASTSt14default_deleteIS0_EEC1IS2_vEEPS0_
	jmp	.L241
.L240:
	movq	%rax, %rsi
	.loc 13 825 0
	movl	$40, %edx
	movq	%rbx, %rcx
	call	_ZdlPvy
	movq	%rsi, %rax
	movq	%rax, %rcx
.LEHB41:
	call	_Unwind_Resume
.LEHE41:
.L241:
	movq	32(%rbp), %rax
	addq	$32, %rsp
	popq	%rbx
	.cfi_restore 3
	popq	%rsi
	.cfi_restore 4
	popq	%rbp
	.cfi_restore 6
	.cfi_def_cfa 7, 24
	ret
	.cfi_endproc
.LFE3388:
	.seh_handler	__gxx_personality_seh0, @unwind, @except
	.seh_handlerdata
.LLSDA3388:
	.byte	0xff
	.byte	0xff
	.byte	0x1
	.uleb128 .LLSDACSE3388-.LLSDACSB3388
.LLSDACSB3388:
	.uleb128 .LEHB39-.LFB3388
	.uleb128 .LEHE39-.LEHB39
	.uleb128 0
	.uleb128 0
	.uleb128 .LEHB40-.LFB3388
	.uleb128 .LEHE40-.LEHB40
	.uleb128 .L240-.LFB3388
	.uleb128 0
	.uleb128 .LEHB41-.LFB3388
	.uleb128 .LEHE41-.LEHB41
	.uleb128 0
	.uleb128 0
.LLSDACSE3388:
	.section	.text$_ZSt11make_uniqueI15VariableExprASTJRNSt7__cxx1112basic_stringIcSt11char_traitsIcESaIcEEEEENSt9_MakeUniqIT_E15__single_objectEDpOT0_,"x"
	.linkonce discard
	.seh_endproc
	.section	.text$_ZNSt10unique_ptrI15VariableExprASTSt14default_deleteIS0_EED1Ev,"x"
	.linkonce discard
	.align 2
	.globl	_ZNSt10unique_ptrI15VariableExprASTSt14default_deleteIS0_EED1Ev
	.def	_ZNSt10unique_ptrI15VariableExprASTSt14default_deleteIS0_EED1Ev;	.scl	2;	.type	32;	.endef
	.seh_proc	_ZNSt10unique_ptrI15VariableExprASTSt14default_deleteIS0_EED1Ev
_ZNSt10unique_ptrI15VariableExprASTSt14default_deleteIS0_EED1Ev:
.LFB3391:
	.loc 13 264 0 is_stmt 1
	.cfi_startproc
	pushq	%rbp
	.seh_pushreg	%rbp
	.cfi_def_cfa_offset 16
	.cfi_offset 6, -16
	movq	%rsp, %rbp
	.seh_setframe	%rbp, 0
	.cfi_def_cfa_register 6
	subq	$48, %rsp
	.seh_stackalloc	48
	.seh_endprologue
	movq	%rcx, 16(%rbp)
.LBB60:
.LBB61:
	.loc 13 266 0
	movq	16(%rbp), %rax
	movq	%rax, %rcx
	call	_ZNSt15__uniq_ptr_implI15VariableExprASTSt14default_deleteIS0_EE6_M_ptrEv
	movq	%rax, -8(%rbp)
	.loc 13 267 0
	movq	-8(%rbp), %rax
	movq	(%rax), %rax
	testq	%rax, %rax
	je	.L243
	.loc 13 268 0
	movq	16(%rbp), %rcx
	call	_ZNSt10unique_ptrI15VariableExprASTSt14default_deleteIS0_EE11get_deleterEv
	movq	%rax, %rcx
	movq	-8(%rbp), %rax
	movq	(%rax), %rax
	movq	%rax, %rdx
	call	_ZNKSt14default_deleteI15VariableExprASTEclEPS0_
.L243:
	.loc 13 269 0
	movq	-8(%rbp), %rax
	movq	$0, (%rax)
.LBE61:
.LBE60:
	.loc 13 270 0
	nop
	addq	$48, %rsp
	popq	%rbp
	.cfi_restore 6
	.cfi_def_cfa 7, 8
	ret
	.cfi_endproc
.LFE3391:
	.seh_endproc
	.section	.text$_ZNSt10unique_ptrI7ExprASTSt14default_deleteIS0_EEC1I15VariableExprASTS1_IS5_EvEEOS_IT_T0_E,"x"
	.linkonce discard
	.align 2
	.globl	_ZNSt10unique_ptrI7ExprASTSt14default_deleteIS0_EEC1I15VariableExprASTS1_IS5_EvEEOS_IT_T0_E
	.def	_ZNSt10unique_ptrI7ExprASTSt14default_deleteIS0_EEC1I15VariableExprASTS1_IS5_EvEEOS_IT_T0_E;	.scl	2;	.type	32;	.endef
	.seh_proc	_ZNSt10unique_ptrI7ExprASTSt14default_deleteIS0_EEC1I15VariableExprASTS1_IS5_EvEEOS_IT_T0_E
_ZNSt10unique_ptrI7ExprASTSt14default_deleteIS0_EEC1I15VariableExprASTS1_IS5_EvEEOS_IT_T0_E:
.LFB3394:
	.loc 13 252 0
	.cfi_startproc
	.cfi_personality 0x9b,.LDFCM0
	.cfi_lsda 0x1c,.LLSDA3394
	pushq	%rbp
	.seh_pushreg	%rbp
	.cfi_def_cfa_offset 16
	.cfi_offset 6, -16
	pushq	%rsi
	.seh_pushreg	%rsi
	.cfi_def_cfa_offset 24
	.cfi_offset 4, -24
	pushq	%rbx
	.seh_pushreg	%rbx
	.cfi_def_cfa_offset 32
	.cfi_offset 3, -32
	movq	%rsp, %rbp
	.seh_setframe	%rbp, 0
	.cfi_def_cfa_register 6
	subq	$32, %rsp
	.seh_stackalloc	32
	.seh_endprologue
	movq	%rcx, 32(%rbp)
	movq	%rdx, 40(%rbp)
.LBB62:
	.loc 13 253 0
	movq	32(%rbp), %rbx
	movq	40(%rbp), %rax
	movq	%rax, %rcx
	call	_ZNSt10unique_ptrI15VariableExprASTSt14default_deleteIS0_EE11get_deleterEv
	movq	%rax, %rcx
	call	_ZSt7forwardISt14default_deleteI15VariableExprASTEEOT_RNSt16remove_referenceIS3_E4typeE
	movq	%rax, %rsi
	movq	40(%rbp), %rax
	movq	%rax, %rcx
	call	_ZNSt10unique_ptrI15VariableExprASTSt14default_deleteIS0_EE7releaseEv
	movq	%rsi, %r8
	movq	%rax, %rdx
	movq	%rbx, %rcx
	call	_ZNSt15__uniq_ptr_implI7ExprASTSt14default_deleteIS0_EEC1IS1_I15VariableExprASTEEEPS0_OT_
.LBE62:
	.loc 13 254 0
	nop
	addq	$32, %rsp
	popq	%rbx
	.cfi_restore 3
	popq	%rsi
	.cfi_restore 4
	popq	%rbp
	.cfi_restore 6
	.cfi_def_cfa 7, 24
	ret
	.cfi_endproc
.LFE3394:
	.seh_handler	__gxx_personality_seh0, @unwind, @except
	.seh_handlerdata
.LLSDA3394:
	.byte	0xff
	.byte	0xff
	.byte	0x1
	.uleb128 .LLSDACSE3394-.LLSDACSB3394
.LLSDACSB3394:
.LLSDACSE3394:
	.section	.text$_ZNSt10unique_ptrI7ExprASTSt14default_deleteIS0_EEC1I15VariableExprASTS1_IS5_EvEEOS_IT_T0_E,"x"
	.linkonce discard
	.seh_endproc
	.section	.text$_ZNSt6vectorISt10unique_ptrI7ExprASTSt14default_deleteIS1_EESaIS4_EEC1Ev,"x"
	.linkonce discard
	.align 2
	.globl	_ZNSt6vectorISt10unique_ptrI7ExprASTSt14default_deleteIS1_EESaIS4_EEC1Ev
	.def	_ZNSt6vectorISt10unique_ptrI7ExprASTSt14default_deleteIS1_EESaIS4_EEC1Ev;	.scl	2;	.type	32;	.endef
	.seh_proc	_ZNSt6vectorISt10unique_ptrI7ExprASTSt14default_deleteIS1_EESaIS4_EEC1Ev
_ZNSt6vectorISt10unique_ptrI7ExprASTSt14default_deleteIS1_EESaIS4_EEC1Ev:
.LFB3397:
	.loc 14 259 0
	.cfi_startproc
	.cfi_personality 0x9b,.LDFCM0
	.cfi_lsda 0x1c,.LLSDA3397
	pushq	%rbp
	.seh_pushreg	%rbp
	.cfi_def_cfa_offset 16
	.cfi_offset 6, -16
	movq	%rsp, %rbp
	.seh_setframe	%rbp, 0
	.cfi_def_cfa_register 6
	subq	$32, %rsp
	.seh_stackalloc	32
	.seh_endprologue
	movq	%rcx, 16(%rbp)
.LBB63:
	.loc 14 263 0
	movq	16(%rbp), %rax
	movq	%rax, %rcx
	call	_ZNSt12_Vector_baseISt10unique_ptrI7ExprASTSt14default_deleteIS1_EESaIS4_EEC2Ev
.LBE63:
	nop
	addq	$32, %rsp
	popq	%rbp
	.cfi_restore 6
	.cfi_def_cfa 7, 8
	ret
	.cfi_endproc
.LFE3397:
	.seh_handler	__gxx_personality_seh0, @unwind, @except
	.seh_handlerdata
.LLSDA3397:
	.byte	0xff
	.byte	0xff
	.byte	0x1
	.uleb128 .LLSDACSE3397-.LLSDACSB3397
.LLSDACSB3397:
.LLSDACSE3397:
	.section	.text$_ZNSt6vectorISt10unique_ptrI7ExprASTSt14default_deleteIS1_EESaIS4_EEC1Ev,"x"
	.linkonce discard
	.seh_endproc
	.section	.text$_ZNSt6vectorISt10unique_ptrI7ExprASTSt14default_deleteIS1_EESaIS4_EE9push_backEOS4_,"x"
	.linkonce discard
	.align 2
	.globl	_ZNSt6vectorISt10unique_ptrI7ExprASTSt14default_deleteIS1_EESaIS4_EE9push_backEOS4_
	.def	_ZNSt6vectorISt10unique_ptrI7ExprASTSt14default_deleteIS1_EESaIS4_EE9push_backEOS4_;	.scl	2;	.type	32;	.endef
	.seh_proc	_ZNSt6vectorISt10unique_ptrI7ExprASTSt14default_deleteIS1_EESaIS4_EE9push_backEOS4_
_ZNSt6vectorISt10unique_ptrI7ExprASTSt14default_deleteIS1_EESaIS4_EE9push_backEOS4_:
.LFB3398:
	.loc 14 953 0
	.cfi_startproc
	pushq	%rbp
	.seh_pushreg	%rbp
	.cfi_def_cfa_offset 16
	.cfi_offset 6, -16
	movq	%rsp, %rbp
	.seh_setframe	%rbp, 0
	.cfi_def_cfa_register 6
	subq	$32, %rsp
	.seh_stackalloc	32
	.seh_endprologue
	movq	%rcx, 16(%rbp)
	movq	%rdx, 24(%rbp)
	.loc 14 954 0
	movq	24(%rbp), %rax
	movq	%rax, %rcx
	call	_ZSt4moveIRSt10unique_ptrI7ExprASTSt14default_deleteIS1_EEEONSt16remove_referenceIT_E4typeEOS7_
	movq	%rax, %rdx
	movq	16(%rbp), %rcx
	call	_ZNSt6vectorISt10unique_ptrI7ExprASTSt14default_deleteIS1_EESaIS4_EE12emplace_backIJS4_EEEvDpOT_
	nop
	addq	$32, %rsp
	popq	%rbp
	.cfi_restore 6
	.cfi_def_cfa 7, 8
	ret
	.cfi_endproc
.LFE3398:
	.seh_endproc
	.section	.text$_ZSt11make_uniqueI11CallExprASTJRNSt7__cxx1112basic_stringIcSt11char_traitsIcESaIcEEESt6vectorISt10unique_ptrI7ExprASTSt14default_deleteISA_EESaISD_EEEENSt9_MakeUniqIT_E15__single_objectEDpOT0_,"x"
	.linkonce discard
	.globl	_ZSt11make_uniqueI11CallExprASTJRNSt7__cxx1112basic_stringIcSt11char_traitsIcESaIcEEESt6vectorISt10unique_ptrI7ExprASTSt14default_deleteISA_EESaISD_EEEENSt9_MakeUniqIT_E15__single_objectEDpOT0_
	.def	_ZSt11make_uniqueI11CallExprASTJRNSt7__cxx1112basic_stringIcSt11char_traitsIcESaIcEEESt6vectorISt10unique_ptrI7ExprASTSt14default_deleteISA_EESaISD_EEEENSt9_MakeUniqIT_E15__single_objectEDpOT0_;	.scl	2;	.type	32;	.endef
	.seh_proc	_ZSt11make_uniqueI11CallExprASTJRNSt7__cxx1112basic_stringIcSt11char_traitsIcESaIcEEESt6vectorISt10unique_ptrI7ExprASTSt14default_deleteISA_EESaISD_EEEENSt9_MakeUniqIT_E15__single_objectEDpOT0_
_ZSt11make_uniqueI11CallExprASTJRNSt7__cxx1112basic_stringIcSt11char_traitsIcESaIcEEESt6vectorISt10unique_ptrI7ExprASTSt14default_deleteISA_EESaISD_EEEENSt9_MakeUniqIT_E15__single_objectEDpOT0_:
.LFB3399:
	.loc 13 824 0
	.cfi_startproc
	.cfi_personality 0x9b,.LDFCM0
	.cfi_lsda 0x1c,.LLSDA3399
	pushq	%rbp
	.seh_pushreg	%rbp
	.cfi_def_cfa_offset 16
	.cfi_offset 6, -16
	pushq	%rdi
	.seh_pushreg	%rdi
	.cfi_def_cfa_offset 24
	.cfi_offset 5, -24
	pushq	%rsi
	.seh_pushreg	%rsi
	.cfi_def_cfa_offset 32
	.cfi_offset 4, -32
	pushq	%rbx
	.seh_pushreg	%rbx
	.cfi_def_cfa_offset 40
	.cfi_offset 3, -40
	subq	$72, %rsp
	.seh_stackalloc	72
	.cfi_def_cfa_offset 112
	leaq	128(%rsp), %rbp
	.seh_setframe	%rbp, 128
	.cfi_def_cfa 6, -16
	.seh_endprologue
	movq	%rcx, -16(%rbp)
	movq	%rdx, -8(%rbp)
	movq	%r8, 0(%rbp)
	.loc 13 825 0
	movq	-8(%rbp), %rax
	movq	%rax, %rcx
	call	_ZSt7forwardIRNSt7__cxx1112basic_stringIcSt11char_traitsIcESaIcEEEEOT_RNSt16remove_referenceIS7_E4typeE
	movq	%rax, %rdi
	movq	0(%rbp), %rax
	movq	%rax, %rcx
	call	_ZSt7forwardISt6vectorISt10unique_ptrI7ExprASTSt14default_deleteIS2_EESaIS5_EEEOT_RNSt16remove_referenceIS8_E4typeE
	movq	%rax, %rdx
	leaq	-96(%rbp), %rax
	movq	%rax, %rcx
	call	_ZNSt6vectorISt10unique_ptrI7ExprASTSt14default_deleteIS1_EESaIS4_EEC1EOS6_
	leaq	-96(%rbp), %rsi
	movl	$64, %ecx
.LEHB42:
	call	_Znwy
.LEHE42:
	movq	%rax, %rbx
	movq	%rsi, %r8
	movq	%rdi, %rdx
	movq	%rbx, %rcx
.LEHB43:
	call	_ZN11CallExprASTC1ERKNSt7__cxx1112basic_stringIcSt11char_traitsIcESaIcEEESt6vectorISt10unique_ptrI7ExprASTSt14default_deleteISA_EESaISD_EE
.LEHE43:
	.loc 13 825 0 is_stmt 0 discriminator 4
	movq	%rbx, %rdx
	movq	-16(%rbp), %rcx
	call	_ZNSt10unique_ptrI11CallExprASTSt14default_deleteIS0_EEC1IS2_vEEPS0_
	leaq	-96(%rbp), %rax
	movq	%rax, %rcx
	call	_ZNSt6vectorISt10unique_ptrI7ExprASTSt14default_deleteIS1_EESaIS4_EED1Ev
	jmp	.L253
.L252:
	movq	%rax, %rsi
	.loc 13 825 0
	movl	$64, %edx
	movq	%rbx, %rcx
	call	_ZdlPvy
	movq	%rsi, %rbx
	jmp	.L250
.L251:
	movq	%rax, %rbx
.L250:
	.loc 13 825 0 discriminator 1
	leaq	-96(%rbp), %rax
	movq	%rax, %rcx
	call	_ZNSt6vectorISt10unique_ptrI7ExprASTSt14default_deleteIS1_EESaIS4_EED1Ev
	movq	%rbx, %rax
	movq	%rax, %rcx
.LEHB44:
	call	_Unwind_Resume
.LEHE44:
.L253:
	.loc 13 825 0
	movq	-16(%rbp), %rax
	addq	$72, %rsp
	popq	%rbx
	.cfi_restore 3
	popq	%rsi
	.cfi_restore 4
	popq	%rdi
	.cfi_restore 5
	popq	%rbp
	.cfi_restore 6
	.cfi_def_cfa 7, -40
	ret
	.cfi_endproc
.LFE3399:
	.seh_handler	__gxx_personality_seh0, @unwind, @except
	.seh_handlerdata
.LLSDA3399:
	.byte	0xff
	.byte	0xff
	.byte	0x1
	.uleb128 .LLSDACSE3399-.LLSDACSB3399
.LLSDACSB3399:
	.uleb128 .LEHB42-.LFB3399
	.uleb128 .LEHE42-.LEHB42
	.uleb128 .L251-.LFB3399
	.uleb128 0
	.uleb128 .LEHB43-.LFB3399
	.uleb128 .LEHE43-.LEHB43
	.uleb128 .L252-.LFB3399
	.uleb128 0
	.uleb128 .LEHB44-.LFB3399
	.uleb128 .LEHE44-.LEHB44
	.uleb128 0
	.uleb128 0
.LLSDACSE3399:
	.section	.text$_ZSt11make_uniqueI11CallExprASTJRNSt7__cxx1112basic_stringIcSt11char_traitsIcESaIcEEESt6vectorISt10unique_ptrI7ExprASTSt14default_deleteISA_EESaISD_EEEENSt9_MakeUniqIT_E15__single_objectEDpOT0_,"x"
	.linkonce discard
	.seh_endproc
	.section	.text$_ZNSt10unique_ptrI11CallExprASTSt14default_deleteIS0_EED1Ev,"x"
	.linkonce discard
	.align 2
	.globl	_ZNSt10unique_ptrI11CallExprASTSt14default_deleteIS0_EED1Ev
	.def	_ZNSt10unique_ptrI11CallExprASTSt14default_deleteIS0_EED1Ev;	.scl	2;	.type	32;	.endef
	.seh_proc	_ZNSt10unique_ptrI11CallExprASTSt14default_deleteIS0_EED1Ev
_ZNSt10unique_ptrI11CallExprASTSt14default_deleteIS0_EED1Ev:
.LFB3402:
	.loc 13 264 0 is_stmt 1
	.cfi_startproc
	pushq	%rbp
	.seh_pushreg	%rbp
	.cfi_def_cfa_offset 16
	.cfi_offset 6, -16
	movq	%rsp, %rbp
	.seh_setframe	%rbp, 0
	.cfi_def_cfa_register 6
	subq	$48, %rsp
	.seh_stackalloc	48
	.seh_endprologue
	movq	%rcx, 16(%rbp)
.LBB64:
.LBB65:
	.loc 13 266 0
	movq	16(%rbp), %rax
	movq	%rax, %rcx
	call	_ZNSt15__uniq_ptr_implI11CallExprASTSt14default_deleteIS0_EE6_M_ptrEv
	movq	%rax, -8(%rbp)
	.loc 13 267 0
	movq	-8(%rbp), %rax
	movq	(%rax), %rax
	testq	%rax, %rax
	je	.L255
	.loc 13 268 0
	movq	16(%rbp), %rcx
	call	_ZNSt10unique_ptrI11CallExprASTSt14default_deleteIS0_EE11get_deleterEv
	movq	%rax, %rcx
	movq	-8(%rbp), %rax
	movq	(%rax), %rax
	movq	%rax, %rdx
	call	_ZNKSt14default_deleteI11CallExprASTEclEPS0_
.L255:
	.loc 13 269 0
	movq	-8(%rbp), %rax
	movq	$0, (%rax)
.LBE65:
.LBE64:
	.loc 13 270 0
	nop
	addq	$48, %rsp
	popq	%rbp
	.cfi_restore 6
	.cfi_def_cfa 7, 8
	ret
	.cfi_endproc
.LFE3402:
	.seh_endproc
	.section	.text$_ZNSt10unique_ptrI7ExprASTSt14default_deleteIS0_EEC1I11CallExprASTS1_IS5_EvEEOS_IT_T0_E,"x"
	.linkonce discard
	.align 2
	.globl	_ZNSt10unique_ptrI7ExprASTSt14default_deleteIS0_EEC1I11CallExprASTS1_IS5_EvEEOS_IT_T0_E
	.def	_ZNSt10unique_ptrI7ExprASTSt14default_deleteIS0_EEC1I11CallExprASTS1_IS5_EvEEOS_IT_T0_E;	.scl	2;	.type	32;	.endef
	.seh_proc	_ZNSt10unique_ptrI7ExprASTSt14default_deleteIS0_EEC1I11CallExprASTS1_IS5_EvEEOS_IT_T0_E
_ZNSt10unique_ptrI7ExprASTSt14default_deleteIS0_EEC1I11CallExprASTS1_IS5_EvEEOS_IT_T0_E:
.LFB3405:
	.loc 13 252 0
	.cfi_startproc
	.cfi_personality 0x9b,.LDFCM0
	.cfi_lsda 0x1c,.LLSDA3405
	pushq	%rbp
	.seh_pushreg	%rbp
	.cfi_def_cfa_offset 16
	.cfi_offset 6, -16
	pushq	%rsi
	.seh_pushreg	%rsi
	.cfi_def_cfa_offset 24
	.cfi_offset 4, -24
	pushq	%rbx
	.seh_pushreg	%rbx
	.cfi_def_cfa_offset 32
	.cfi_offset 3, -32
	movq	%rsp, %rbp
	.seh_setframe	%rbp, 0
	.cfi_def_cfa_register 6
	subq	$32, %rsp
	.seh_stackalloc	32
	.seh_endprologue
	movq	%rcx, 32(%rbp)
	movq	%rdx, 40(%rbp)
.LBB66:
	.loc 13 253 0
	movq	32(%rbp), %rbx
	movq	40(%rbp), %rax
	movq	%rax, %rcx
	call	_ZNSt10unique_ptrI11CallExprASTSt14default_deleteIS0_EE11get_deleterEv
	movq	%rax, %rcx
	call	_ZSt7forwardISt14default_deleteI11CallExprASTEEOT_RNSt16remove_referenceIS3_E4typeE
	movq	%rax, %rsi
	movq	40(%rbp), %rax
	movq	%rax, %rcx
	call	_ZNSt10unique_ptrI11CallExprASTSt14default_deleteIS0_EE7releaseEv
	movq	%rsi, %r8
	movq	%rax, %rdx
	movq	%rbx, %rcx
	call	_ZNSt15__uniq_ptr_implI7ExprASTSt14default_deleteIS0_EEC1IS1_I11CallExprASTEEEPS0_OT_
.LBE66:
	.loc 13 254 0
	nop
	addq	$32, %rsp
	popq	%rbx
	.cfi_restore 3
	popq	%rsi
	.cfi_restore 4
	popq	%rbp
	.cfi_restore 6
	.cfi_def_cfa 7, 24
	ret
	.cfi_endproc
.LFE3405:
	.seh_handler	__gxx_personality_seh0, @unwind, @except
	.seh_handlerdata
.LLSDA3405:
	.byte	0xff
	.byte	0xff
	.byte	0x1
	.uleb128 .LLSDACSE3405-.LLSDACSB3405
.LLSDACSB3405:
.LLSDACSE3405:
	.section	.text$_ZNSt10unique_ptrI7ExprASTSt14default_deleteIS0_EEC1I11CallExprASTS1_IS5_EvEEOS_IT_T0_E,"x"
	.linkonce discard
	.seh_endproc
	.section	.text$_ZNSaISt13_Rb_tree_nodeISt4pairIKciEEEC2Ev,"x"
	.linkonce discard
	.align 2
	.globl	_ZNSaISt13_Rb_tree_nodeISt4pairIKciEEEC2Ev
	.def	_ZNSaISt13_Rb_tree_nodeISt4pairIKciEEEC2Ev;	.scl	2;	.type	32;	.endef
	.seh_proc	_ZNSaISt13_Rb_tree_nodeISt4pairIKciEEEC2Ev
_ZNSaISt13_Rb_tree_nodeISt4pairIKciEEEC2Ev:
.LFB3407:
	.file 16 "E:/mingw64/lib/gcc/x86_64-w64-mingw32/7.2.0/include/c++/bits/allocator.h"
	.loc 16 131 0
	.cfi_startproc
	pushq	%rbp
	.seh_pushreg	%rbp
	.cfi_def_cfa_offset 16
	.cfi_offset 6, -16
	movq	%rsp, %rbp
	.seh_setframe	%rbp, 0
	.cfi_def_cfa_register 6
	subq	$32, %rsp
	.seh_stackalloc	32
	.seh_endprologue
	movq	%rcx, 16(%rbp)
.LBB67:
	.loc 16 131 0
	movq	16(%rbp), %rcx
	call	_ZN9__gnu_cxx13new_allocatorISt13_Rb_tree_nodeISt4pairIKciEEEC2Ev
.LBE67:
	nop
	addq	$32, %rsp
	popq	%rbp
	.cfi_restore 6
	.cfi_def_cfa 7, 8
	ret
	.cfi_endproc
.LFE3407:
	.seh_endproc
	.section	.text$_ZNSaISt13_Rb_tree_nodeISt4pairIKciEEED2Ev,"x"
	.linkonce discard
	.align 2
	.globl	_ZNSaISt13_Rb_tree_nodeISt4pairIKciEEED2Ev
	.def	_ZNSaISt13_Rb_tree_nodeISt4pairIKciEEED2Ev;	.scl	2;	.type	32;	.endef
	.seh_proc	_ZNSaISt13_Rb_tree_nodeISt4pairIKciEEED2Ev
_ZNSaISt13_Rb_tree_nodeISt4pairIKciEEED2Ev:
.LFB3410:
	.loc 16 139 0
	.cfi_startproc
	pushq	%rbp
	.seh_pushreg	%rbp
	.cfi_def_cfa_offset 16
	.cfi_offset 6, -16
	movq	%rsp, %rbp
	.seh_setframe	%rbp, 0
	.cfi_def_cfa_register 6
	subq	$32, %rsp
	.seh_stackalloc	32
	.seh_endprologue
	movq	%rcx, 16(%rbp)
.LBB68:
	.loc 16 139 0
	movq	16(%rbp), %rcx
	call	_ZN9__gnu_cxx13new_allocatorISt13_Rb_tree_nodeISt4pairIKciEEED2Ev
.LBE68:
	nop
	addq	$32, %rsp
	popq	%rbp
	.cfi_restore 6
	.cfi_def_cfa 7, 8
	ret
	.cfi_endproc
.LFE3410:
	.seh_endproc
	.section	.text$_ZNSt20_Rb_tree_key_compareISt4lessIcEEC2Ev,"x"
	.linkonce discard
	.align 2
	.globl	_ZNSt20_Rb_tree_key_compareISt4lessIcEEC2Ev
	.def	_ZNSt20_Rb_tree_key_compareISt4lessIcEEC2Ev;	.scl	2;	.type	32;	.endef
	.seh_proc	_ZNSt20_Rb_tree_key_compareISt4lessIcEEC2Ev
_ZNSt20_Rb_tree_key_compareISt4lessIcEEC2Ev:
.LFB3413:
	.loc 6 146 0
	.cfi_startproc
	pushq	%rbp
	.seh_pushreg	%rbp
	.cfi_def_cfa_offset 16
	.cfi_offset 6, -16
	movq	%rsp, %rbp
	.seh_setframe	%rbp, 0
	.cfi_def_cfa_register 6
	.seh_endprologue
	movq	%rcx, 16(%rbp)
	.loc 6 150 0
	nop
	popq	%rbp
	.cfi_restore 6
	.cfi_def_cfa 7, 8
	ret
	.cfi_endproc
.LFE3413:
	.seh_endproc
	.section	.text$_ZNSt8_Rb_treeIcSt4pairIKciESt10_Select1stIS2_ESt4lessIcESaIS2_EED1Ev,"x"
	.linkonce discard
	.align 2
	.globl	_ZNSt8_Rb_treeIcSt4pairIKciESt10_Select1stIS2_ESt4lessIcESaIS2_EED1Ev
	.def	_ZNSt8_Rb_treeIcSt4pairIKciESt10_Select1stIS2_ESt4lessIcESaIS2_EED1Ev;	.scl	2;	.type	32;	.endef
	.seh_proc	_ZNSt8_Rb_treeIcSt4pairIKciESt10_Select1stIS2_ESt4lessIcESaIS2_EED1Ev
_ZNSt8_Rb_treeIcSt4pairIKciESt10_Select1stIS2_ESt4lessIcESaIS2_EED1Ev:
.LFB3417:
	.loc 6 948 0
	.cfi_startproc
	.cfi_personality 0x9b,.LDFCM0
	.cfi_lsda 0x1c,.LLSDA3417
	pushq	%rbp
	.seh_pushreg	%rbp
	.cfi_def_cfa_offset 16
	.cfi_offset 6, -16
	movq	%rsp, %rbp
	.seh_setframe	%rbp, 0
	.cfi_def_cfa_register 6
	subq	$32, %rsp
	.seh_stackalloc	32
	.seh_endprologue
	movq	%rcx, 16(%rbp)
.LBB69:
	.loc 6 949 0
	movq	16(%rbp), %rcx
	call	_ZNSt8_Rb_treeIcSt4pairIKciESt10_Select1stIS2_ESt4lessIcESaIS2_EE8_M_beginEv
	movq	%rax, %rdx
	movq	16(%rbp), %rcx
	call	_ZNSt8_Rb_treeIcSt4pairIKciESt10_Select1stIS2_ESt4lessIcESaIS2_EE8_M_eraseEPSt13_Rb_tree_nodeIS2_E
	movq	16(%rbp), %rax
	movq	%rax, %rcx
	call	_ZNSt8_Rb_treeIcSt4pairIKciESt10_Select1stIS2_ESt4lessIcESaIS2_EE13_Rb_tree_implIS6_Lb1EED1Ev
.LBE69:
	nop
	addq	$32, %rsp
	popq	%rbp
	.cfi_restore 6
	.cfi_def_cfa 7, 8
	ret
	.cfi_endproc
.LFE3417:
	.seh_handler	__gxx_personality_seh0, @unwind, @except
	.seh_handlerdata
.LLSDA3417:
	.byte	0xff
	.byte	0xff
	.byte	0x1
	.uleb128 .LLSDACSE3417-.LLSDACSB3417
.LLSDACSB3417:
.LLSDACSE3417:
	.section	.text$_ZNSt8_Rb_treeIcSt4pairIKciESt10_Select1stIS2_ESt4lessIcESaIS2_EED1Ev,"x"
	.linkonce discard
	.seh_endproc
	.section	.text$_ZNSt3mapIciSt4lessIcESaISt4pairIKciEEEixEOc,"x"
	.linkonce discard
	.align 2
	.globl	_ZNSt3mapIciSt4lessIcESaISt4pairIKciEEEixEOc
	.def	_ZNSt3mapIciSt4lessIcESaISt4pairIKciEEEixEOc;	.scl	2;	.type	32;	.endef
	.seh_proc	_ZNSt3mapIciSt4lessIcESaISt4pairIKciEEEixEOc
_ZNSt3mapIciSt4lessIcESaISt4pairIKciEEEixEOc:
.LFB3418:
	.loc 8 504 0
	.cfi_startproc
	pushq	%rbp
	.seh_pushreg	%rbp
	.cfi_def_cfa_offset 16
	.cfi_offset 6, -16
	pushq	%rbx
	.seh_pushreg	%rbx
	.cfi_def_cfa_offset 24
	.cfi_offset 3, -24
	subq	$104, %rsp
	.seh_stackalloc	104
	.cfi_def_cfa_offset 128
	leaq	128(%rsp), %rbp
	.seh_setframe	%rbp, 128
	.cfi_def_cfa 6, 0
	.seh_endprologue
	movq	%rcx, 0(%rbp)
	movq	%rdx, 8(%rbp)
	.loc 8 509 0
	movq	8(%rbp), %rax
	movq	%rax, %rdx
	movq	0(%rbp), %rcx
	call	_ZNSt3mapIciSt4lessIcESaISt4pairIKciEEE11lower_boundERS3_
	movq	%rax, -72(%rbp)
	.loc 8 511 0
	movq	0(%rbp), %rcx
	call	_ZNSt3mapIciSt4lessIcESaISt4pairIKciEEE3endEv
	movq	%rax, -64(%rbp)
	leaq	-64(%rbp), %rdx
	leaq	-72(%rbp), %rax
	movq	%rax, %rcx
	call	_ZNKSt17_Rb_tree_iteratorISt4pairIKciEEeqERKS3_
	testb	%al, %al
	jne	.L262
	.loc 8 511 0 is_stmt 0 discriminator 2
	movq	0(%rbp), %rcx
	call	_ZNKSt3mapIciSt4lessIcESaISt4pairIKciEEE8key_compEv
	leaq	-72(%rbp), %rax
	movq	%rax, %rcx
	call	_ZNKSt17_Rb_tree_iteratorISt4pairIKciEEdeEv
	movq	%rax, %rcx
	movq	8(%rbp), %rdx
	leaq	-50(%rbp), %rax
	movq	%rcx, %r8
	movq	%rax, %rcx
	call	_ZNKSt4lessIcEclERKcS2_
	testb	%al, %al
	je	.L263
.L262:
	.loc 8 511 0 discriminator 5
	movl	$1, %eax
	jmp	.L264
.L263:
	.loc 8 511 0 discriminator 6
	movl	$0, %eax
.L264:
	.loc 8 511 0 discriminator 8
	testb	%al, %al
	je	.L265
	.loc 8 512 0 is_stmt 1
	movq	0(%rbp), %rbx
	.loc 8 513 0
	movq	8(%rbp), %rax
	movq	%rax, %rcx
	call	_ZSt4moveIRcEONSt16remove_referenceIT_E4typeEOS2_
	movq	%rax, %rdx
	.loc 8 512 0
	leaq	-48(%rbp), %rax
	movq	%rax, %rcx
	call	_ZSt16forward_as_tupleIJcEESt5tupleIJDpOT_EES3_
	leaq	-72(%rbp), %rdx
	leaq	-40(%rbp), %rax
	movq	%rax, %rcx
	call	_ZNSt23_Rb_tree_const_iteratorISt4pairIKciEEC1ERKSt17_Rb_tree_iteratorIS2_E
	leaq	-48(%rbp), %rcx
	movq	-40(%rbp), %rax
	leaq	-49(%rbp), %rdx
	movq	%rdx, 32(%rsp)
	movq	%rcx, %r9
	leaq	_ZStL19piecewise_construct(%rip), %r8
	movq	%rax, %rdx
	movq	%rbx, %rcx
	call	_ZNSt8_Rb_treeIcSt4pairIKciESt10_Select1stIS2_ESt4lessIcESaIS2_EE22_M_emplace_hint_uniqueIJRKSt21piecewise_construct_tSt5tupleIJOcEESD_IJEEEEESt17_Rb_tree_iteratorIS2_ESt23_Rb_tree_const_iteratorIS2_EDpOT_
	movq	%rax, -72(%rbp)
.L265:
	.loc 8 515 0
	leaq	-72(%rbp), %rax
	movq	%rax, %rcx
	call	_ZNKSt17_Rb_tree_iteratorISt4pairIKciEEdeEv
	addq	$4, %rax
	.loc 8 516 0
	addq	$104, %rsp
	popq	%rbx
	.cfi_restore 3
	popq	%rbp
	.cfi_restore 6
	.cfi_def_cfa 7, -88
	ret
	.cfi_endproc
.LFE3418:
	.seh_endproc
	.section	.text$_ZNSt10unique_ptrI7ExprASTSt14default_deleteIS0_EEaSEOS3_,"x"
	.linkonce discard
	.align 2
	.globl	_ZNSt10unique_ptrI7ExprASTSt14default_deleteIS0_EEaSEOS3_
	.def	_ZNSt10unique_ptrI7ExprASTSt14default_deleteIS0_EEaSEOS3_;	.scl	2;	.type	32;	.endef
	.seh_proc	_ZNSt10unique_ptrI7ExprASTSt14default_deleteIS0_EEaSEOS3_
_ZNSt10unique_ptrI7ExprASTSt14default_deleteIS0_EEaSEOS3_:
.LFB3419:
	.loc 13 281 0
	.cfi_startproc
	pushq	%rbp
	.seh_pushreg	%rbp
	.cfi_def_cfa_offset 16
	.cfi_offset 6, -16
	movq	%rsp, %rbp
	.seh_setframe	%rbp, 0
	.cfi_def_cfa_register 6
	subq	$32, %rsp
	.seh_stackalloc	32
	.seh_endprologue
	movq	%rcx, 16(%rbp)
	movq	%rdx, 24(%rbp)
	.loc 13 283 0
	movq	24(%rbp), %rax
	movq	%rax, %rcx
	call	_ZNSt10unique_ptrI7ExprASTSt14default_deleteIS0_EE7releaseEv
	movq	%rax, %rdx
	movq	16(%rbp), %rcx
	call	_ZNSt10unique_ptrI7ExprASTSt14default_deleteIS0_EE5resetEPS0_
	.loc 13 284 0
	movq	24(%rbp), %rax
	movq	%rax, %rcx
	call	_ZNSt10unique_ptrI7ExprASTSt14default_deleteIS0_EE11get_deleterEv
	movq	%rax, %rcx
	call	_ZSt7forwardISt14default_deleteI7ExprASTEEOT_RNSt16remove_referenceIS3_E4typeE
	movq	16(%rbp), %rcx
	call	_ZNSt10unique_ptrI7ExprASTSt14default_deleteIS0_EE11get_deleterEv
	.loc 13 285 0
	movq	16(%rbp), %rax
	.loc 13 286 0
	addq	$32, %rsp
	popq	%rbp
	.cfi_restore 6
	.cfi_def_cfa 7, 8
	ret
	.cfi_endproc
.LFE3419:
	.seh_endproc
	.section	.text$_ZSt7forwardIRiEOT_RNSt16remove_referenceIS1_E4typeE,"x"
	.linkonce discard
	.globl	_ZSt7forwardIRiEOT_RNSt16remove_referenceIS1_E4typeE
	.def	_ZSt7forwardIRiEOT_RNSt16remove_referenceIS1_E4typeE;	.scl	2;	.type	32;	.endef
	.seh_proc	_ZSt7forwardIRiEOT_RNSt16remove_referenceIS1_E4typeE
_ZSt7forwardIRiEOT_RNSt16remove_referenceIS1_E4typeE:
.LFB3421:
	.loc 12 73 0
	.cfi_startproc
	pushq	%rbp
	.seh_pushreg	%rbp
	.cfi_def_cfa_offset 16
	.cfi_offset 6, -16
	movq	%rsp, %rbp
	.seh_setframe	%rbp, 0
	.cfi_def_cfa_register 6
	.seh_endprologue
	movq	%rcx, 16(%rbp)
	.loc 12 74 0
	movq	16(%rbp), %rax
	popq	%rbp
	.cfi_restore 6
	.cfi_def_cfa 7, 8
	ret
	.cfi_endproc
.LFE3421:
	.seh_endproc
	.section	.text$_ZSt11make_uniqueI13BinaryExprASTJRiSt10unique_ptrI7ExprASTSt14default_deleteIS3_EES6_EENSt9_MakeUniqIT_E15__single_objectEDpOT0_,"x"
	.linkonce discard
	.globl	_ZSt11make_uniqueI13BinaryExprASTJRiSt10unique_ptrI7ExprASTSt14default_deleteIS3_EES6_EENSt9_MakeUniqIT_E15__single_objectEDpOT0_
	.def	_ZSt11make_uniqueI13BinaryExprASTJRiSt10unique_ptrI7ExprASTSt14default_deleteIS3_EES6_EENSt9_MakeUniqIT_E15__single_objectEDpOT0_;	.scl	2;	.type	32;	.endef
	.seh_proc	_ZSt11make_uniqueI13BinaryExprASTJRiSt10unique_ptrI7ExprASTSt14default_deleteIS3_EES6_EENSt9_MakeUniqIT_E15__single_objectEDpOT0_
_ZSt11make_uniqueI13BinaryExprASTJRiSt10unique_ptrI7ExprASTSt14default_deleteIS3_EES6_EENSt9_MakeUniqIT_E15__single_objectEDpOT0_:
.LFB3420:
	.loc 13 824 0
	.cfi_startproc
	.cfi_personality 0x9b,.LDFCM0
	.cfi_lsda 0x1c,.LLSDA3420
	pushq	%rbp
	.seh_pushreg	%rbp
	.cfi_def_cfa_offset 16
	.cfi_offset 6, -16
	pushq	%r12
	.seh_pushreg	%r12
	.cfi_def_cfa_offset 24
	.cfi_offset 12, -24
	pushq	%rdi
	.seh_pushreg	%rdi
	.cfi_def_cfa_offset 32
	.cfi_offset 5, -32
	pushq	%rsi
	.seh_pushreg	%rsi
	.cfi_def_cfa_offset 40
	.cfi_offset 4, -40
	pushq	%rbx
	.seh_pushreg	%rbx
	.cfi_def_cfa_offset 48
	.cfi_offset 3, -48
	movq	%rsp, %rbp
	.seh_setframe	%rbp, 0
	.cfi_def_cfa_register 6
	subq	$48, %rsp
	.seh_stackalloc	48
	.seh_endprologue
	movq	%rcx, 48(%rbp)
	movq	%rdx, 56(%rbp)
	movq	%r8, 64(%rbp)
	movq	%r9, 72(%rbp)
	.loc 13 825 0
	movq	56(%rbp), %rax
	movq	%rax, %rcx
	call	_ZSt7forwardIRiEOT_RNSt16remove_referenceIS1_E4typeE
	movl	(%rax), %eax
	movsbl	%al, %esi
	movq	64(%rbp), %rax
	movq	%rax, %rcx
	call	_ZSt7forwardISt10unique_ptrI7ExprASTSt14default_deleteIS1_EEEOT_RNSt16remove_referenceIS5_E4typeE
	movq	%rax, %rdx
	leaq	-16(%rbp), %rax
	movq	%rax, %rcx
	call	_ZNSt10unique_ptrI7ExprASTSt14default_deleteIS0_EEC1EOS3_
	leaq	-16(%rbp), %rdi
	movq	72(%rbp), %rax
	movq	%rax, %rcx
	call	_ZSt7forwardISt10unique_ptrI7ExprASTSt14default_deleteIS1_EEEOT_RNSt16remove_referenceIS5_E4typeE
	movq	%rax, %rdx
	leaq	-8(%rbp), %rax
	movq	%rax, %rcx
	call	_ZNSt10unique_ptrI7ExprASTSt14default_deleteIS0_EEC1EOS3_
	leaq	-8(%rbp), %r12
	movl	$32, %ecx
.LEHB45:
	call	_Znwy
.LEHE45:
	movq	%rax, %rbx
	movq	%r12, %r9
	movq	%rdi, %r8
	movl	%esi, %edx
	movq	%rbx, %rcx
	call	_ZN13BinaryExprASTC1EcSt10unique_ptrI7ExprASTSt14default_deleteIS1_EES4_
	movq	%rbx, %rdx
	movq	48(%rbp), %rcx
	call	_ZNSt10unique_ptrI13BinaryExprASTSt14default_deleteIS0_EEC1IS2_vEEPS0_
	leaq	-8(%rbp), %rax
	movq	%rax, %rcx
	call	_ZNSt10unique_ptrI7ExprASTSt14default_deleteIS0_EED1Ev
	leaq	-16(%rbp), %rax
	movq	%rax, %rcx
	call	_ZNSt10unique_ptrI7ExprASTSt14default_deleteIS0_EED1Ev
	jmp	.L275
.L274:
	movq	%rax, %rbx
	leaq	-8(%rbp), %rax
	movq	%rax, %rcx
	call	_ZNSt10unique_ptrI7ExprASTSt14default_deleteIS0_EED1Ev
	leaq	-16(%rbp), %rax
	movq	%rax, %rcx
	call	_ZNSt10unique_ptrI7ExprASTSt14default_deleteIS0_EED1Ev
	movq	%rbx, %rax
	movq	%rax, %rcx
.LEHB46:
	call	_Unwind_Resume
.LEHE46:
.L275:
	movq	48(%rbp), %rax
	addq	$48, %rsp
	popq	%rbx
	.cfi_restore 3
	popq	%rsi
	.cfi_restore 4
	popq	%rdi
	.cfi_restore 5
	popq	%r12
	.cfi_restore 12
	popq	%rbp
	.cfi_restore 6
	.cfi_def_cfa 7, 40
	ret
	.cfi_endproc
.LFE3420:
	.seh_handler	__gxx_personality_seh0, @unwind, @except
	.seh_handlerdata
.LLSDA3420:
	.byte	0xff
	.byte	0xff
	.byte	0x1
	.uleb128 .LLSDACSE3420-.LLSDACSB3420
.LLSDACSB3420:
	.uleb128 .LEHB45-.LFB3420
	.uleb128 .LEHE45-.LEHB45
	.uleb128 .L274-.LFB3420
	.uleb128 0
	.uleb128 .LEHB46-.LFB3420
	.uleb128 .LEHE46-.LEHB46
	.uleb128 0
	.uleb128 0
.LLSDACSE3420:
	.section	.text$_ZSt11make_uniqueI13BinaryExprASTJRiSt10unique_ptrI7ExprASTSt14default_deleteIS3_EES6_EENSt9_MakeUniqIT_E15__single_objectEDpOT0_,"x"
	.linkonce discard
	.seh_endproc
	.section	.text$_ZNSt10unique_ptrI13BinaryExprASTSt14default_deleteIS0_EED1Ev,"x"
	.linkonce discard
	.align 2
	.globl	_ZNSt10unique_ptrI13BinaryExprASTSt14default_deleteIS0_EED1Ev
	.def	_ZNSt10unique_ptrI13BinaryExprASTSt14default_deleteIS0_EED1Ev;	.scl	2;	.type	32;	.endef
	.seh_proc	_ZNSt10unique_ptrI13BinaryExprASTSt14default_deleteIS0_EED1Ev
_ZNSt10unique_ptrI13BinaryExprASTSt14default_deleteIS0_EED1Ev:
.LFB3424:
	.loc 13 264 0
	.cfi_startproc
	pushq	%rbp
	.seh_pushreg	%rbp
	.cfi_def_cfa_offset 16
	.cfi_offset 6, -16
	movq	%rsp, %rbp
	.seh_setframe	%rbp, 0
	.cfi_def_cfa_register 6
	subq	$48, %rsp
	.seh_stackalloc	48
	.seh_endprologue
	movq	%rcx, 16(%rbp)
.LBB70:
.LBB71:
	.loc 13 266 0
	movq	16(%rbp), %rax
	movq	%rax, %rcx
	call	_ZNSt15__uniq_ptr_implI13BinaryExprASTSt14default_deleteIS0_EE6_M_ptrEv
	movq	%rax, -8(%rbp)
	.loc 13 267 0
	movq	-8(%rbp), %rax
	movq	(%rax), %rax
	testq	%rax, %rax
	je	.L277
	.loc 13 268 0
	movq	16(%rbp), %rcx
	call	_ZNSt10unique_ptrI13BinaryExprASTSt14default_deleteIS0_EE11get_deleterEv
	movq	%rax, %rcx
	movq	-8(%rbp), %rax
	movq	(%rax), %rax
	movq	%rax, %rdx
	call	_ZNKSt14default_deleteI13BinaryExprASTEclEPS0_
.L277:
	.loc 13 269 0
	movq	-8(%rbp), %rax
	movq	$0, (%rax)
.LBE71:
.LBE70:
	.loc 13 270 0
	nop
	addq	$48, %rsp
	popq	%rbp
	.cfi_restore 6
	.cfi_def_cfa 7, 8
	ret
	.cfi_endproc
.LFE3424:
	.seh_endproc
	.section	.text$_ZNSt10unique_ptrI7ExprASTSt14default_deleteIS0_EEaSI13BinaryExprASTS1_IS5_EEENSt9enable_ifIXsrSt6__and_IJS8_IJSt14is_convertibleINS_IT_T0_E7pointerEPS0_ESt6__not_ISt8is_arrayISA_EESt5__or_IJS8_IJSt12is_referenceIS2_ESt7is_sameIS2_SB_EEES8_IJSG_ISM_ES9_ISB_S2_EEEEEEESt13is_assignableIRS2_OSB_EEE5valueERS3_E4typeEOSC_,"x"
	.linkonce discard
	.align 2
	.globl	_ZNSt10unique_ptrI7ExprASTSt14default_deleteIS0_EEaSI13BinaryExprASTS1_IS5_EEENSt9enable_ifIXsrSt6__and_IJS8_IJSt14is_convertibleINS_IT_T0_E7pointerEPS0_ESt6__not_ISt8is_arrayISA_EESt5__or_IJS8_IJSt12is_referenceIS2_ESt7is_sameIS2_SB_EEES8_IJSG_ISM_ES9_ISB_S2_EEEEEEESt13is_assignableIRS2_OSB_EEE5valueERS3_E4typeEOSC_
	.def	_ZNSt10unique_ptrI7ExprASTSt14default_deleteIS0_EEaSI13BinaryExprASTS1_IS5_EEENSt9enable_ifIXsrSt6__and_IJS8_IJSt14is_convertibleINS_IT_T0_E7pointerEPS0_ESt6__not_ISt8is_arrayISA_EESt5__or_IJS8_IJSt12is_referenceIS2_ESt7is_sameIS2_SB_EEES8_IJSG_ISM_ES9_ISB_S2_EEEEEEESt13is_assignableIRS2_OSB_EEE5valueERS3_E4typeEOSC_;	.scl	2;	.type	32;	.endef
	.seh_proc	_ZNSt10unique_ptrI7ExprASTSt14default_deleteIS0_EEaSI13BinaryExprASTS1_IS5_EEENSt9enable_ifIXsrSt6__and_IJS8_IJSt14is_convertibleINS_IT_T0_E7pointerEPS0_ESt6__not_ISt8is_arrayISA_EESt5__or_IJS8_IJSt12is_referenceIS2_ESt7is_sameIS2_SB_EEES8_IJSG_ISM_ES9_ISB_S2_EEEEEEESt13is_assignableIRS2_OSB_EEE5valueERS3_E4typeEOSC_
_ZNSt10unique_ptrI7ExprASTSt14default_deleteIS0_EEaSI13BinaryExprASTS1_IS5_EEENSt9enable_ifIXsrSt6__and_IJS8_IJSt14is_convertibleINS_IT_T0_E7pointerEPS0_ESt6__not_ISt8is_arrayISA_EESt5__or_IJS8_IJSt12is_referenceIS2_ESt7is_sameIS2_SB_EEES8_IJSG_ISM_ES9_ISB_S2_EEEEEEESt13is_assignableIRS2_OSB_EEE5valueERS3_E4typeEOSC_:
.LFB3425:
	.loc 13 301 0
	.cfi_startproc
	pushq	%rbp
	.seh_pushreg	%rbp
	.cfi_def_cfa_offset 16
	.cfi_offset 6, -16
	movq	%rsp, %rbp
	.seh_setframe	%rbp, 0
	.cfi_def_cfa_register 6
	subq	$48, %rsp
	.seh_stackalloc	48
	.seh_endprologue
	movq	%rcx, 16(%rbp)
	movq	%rdx, 24(%rbp)
	.loc 13 303 0
	movq	24(%rbp), %rax
	movq	%rax, %rcx
	call	_ZNSt10unique_ptrI13BinaryExprASTSt14default_deleteIS0_EE7releaseEv
	movq	%rax, %rdx
	movq	16(%rbp), %rcx
	call	_ZNSt10unique_ptrI7ExprASTSt14default_deleteIS0_EE5resetEPS0_
	.loc 13 304 0
	movq	24(%rbp), %rax
	movq	%rax, %rcx
	call	_ZNSt10unique_ptrI13BinaryExprASTSt14default_deleteIS0_EE11get_deleterEv
	movq	%rax, %rcx
	call	_ZSt7forwardISt14default_deleteI13BinaryExprASTEEOT_RNSt16remove_referenceIS3_E4typeE
	movq	%rax, %rdx
	leaq	-1(%rbp), %rax
	movq	%rax, %rcx
	call	_ZNSt14default_deleteI7ExprASTEC1I13BinaryExprASTvEERKS_IT_E
	movq	16(%rbp), %rcx
	call	_ZNSt10unique_ptrI7ExprASTSt14default_deleteIS0_EE11get_deleterEv
	.loc 13 305 0
	movq	16(%rbp), %rax
	.loc 13 306 0
	addq	$48, %rsp
	popq	%rbp
	.cfi_restore 6
	.cfi_def_cfa 7, 8
	ret
	.cfi_endproc
.LFE3425:
	.seh_endproc
	.section	.text$_ZNSt6vectorINSt7__cxx1112basic_stringIcSt11char_traitsIcESaIcEEESaIS5_EEC1Ev,"x"
	.linkonce discard
	.align 2
	.globl	_ZNSt6vectorINSt7__cxx1112basic_stringIcSt11char_traitsIcESaIcEEESaIS5_EEC1Ev
	.def	_ZNSt6vectorINSt7__cxx1112basic_stringIcSt11char_traitsIcESaIcEEESaIS5_EEC1Ev;	.scl	2;	.type	32;	.endef
	.seh_proc	_ZNSt6vectorINSt7__cxx1112basic_stringIcSt11char_traitsIcESaIcEEESaIS5_EEC1Ev
_ZNSt6vectorINSt7__cxx1112basic_stringIcSt11char_traitsIcESaIcEEESaIS5_EEC1Ev:
.LFB3428:
	.loc 14 259 0
	.cfi_startproc
	.cfi_personality 0x9b,.LDFCM0
	.cfi_lsda 0x1c,.LLSDA3428
	pushq	%rbp
	.seh_pushreg	%rbp
	.cfi_def_cfa_offset 16
	.cfi_offset 6, -16
	movq	%rsp, %rbp
	.seh_setframe	%rbp, 0
	.cfi_def_cfa_register 6
	subq	$32, %rsp
	.seh_stackalloc	32
	.seh_endprologue
	movq	%rcx, 16(%rbp)
.LBB72:
	.loc 14 263 0
	movq	16(%rbp), %rax
	movq	%rax, %rcx
	call	_ZNSt12_Vector_baseINSt7__cxx1112basic_stringIcSt11char_traitsIcESaIcEEESaIS5_EEC2Ev
.LBE72:
	nop
	addq	$32, %rsp
	popq	%rbp
	.cfi_restore 6
	.cfi_def_cfa 7, 8
	ret
	.cfi_endproc
.LFE3428:
	.seh_handler	__gxx_personality_seh0, @unwind, @except
	.seh_handlerdata
.LLSDA3428:
	.byte	0xff
	.byte	0xff
	.byte	0x1
	.uleb128 .LLSDACSE3428-.LLSDACSB3428
.LLSDACSB3428:
.LLSDACSE3428:
	.section	.text$_ZNSt6vectorINSt7__cxx1112basic_stringIcSt11char_traitsIcESaIcEEESaIS5_EEC1Ev,"x"
	.linkonce discard
	.seh_endproc
	.section	.text$_ZNSt6vectorINSt7__cxx1112basic_stringIcSt11char_traitsIcESaIcEEESaIS5_EE9push_backERKS5_,"x"
	.linkonce discard
	.align 2
	.globl	_ZNSt6vectorINSt7__cxx1112basic_stringIcSt11char_traitsIcESaIcEEESaIS5_EE9push_backERKS5_
	.def	_ZNSt6vectorINSt7__cxx1112basic_stringIcSt11char_traitsIcESaIcEEESaIS5_EE9push_backERKS5_;	.scl	2;	.type	32;	.endef
	.seh_proc	_ZNSt6vectorINSt7__cxx1112basic_stringIcSt11char_traitsIcESaIcEEESaIS5_EE9push_backERKS5_
_ZNSt6vectorINSt7__cxx1112basic_stringIcSt11char_traitsIcESaIcEEESaIS5_EE9push_backERKS5_:
.LFB3429:
	.loc 14 939 0
	.cfi_startproc
	pushq	%rbp
	.seh_pushreg	%rbp
	.cfi_def_cfa_offset 16
	.cfi_offset 6, -16
	movq	%rsp, %rbp
	.seh_setframe	%rbp, 0
	.cfi_def_cfa_register 6
	subq	$32, %rsp
	.seh_stackalloc	32
	.seh_endprologue
	movq	%rcx, 16(%rbp)
	movq	%rdx, 24(%rbp)
	.loc 14 941 0
	movq	16(%rbp), %rax
	movq	8(%rax), %rdx
	movq	16(%rbp), %rax
	movq	16(%rax), %rax
	cmpq	%rax, %rdx
	je	.L282
	.loc 14 943 0
	movq	16(%rbp), %rax
	movq	8(%rax), %rdx
	movq	16(%rbp), %rax
	movq	24(%rbp), %rcx
	movq	%rcx, %r8
	movq	%rax, %rcx
	call	_ZNSt16allocator_traitsISaINSt7__cxx1112basic_stringIcSt11char_traitsIcESaIcEEEEE9constructIS5_JRKS5_EEEvRS6_PT_DpOT0_
	.loc 14 945 0
	movq	16(%rbp), %rax
	movq	8(%rax), %rax
	leaq	32(%rax), %rdx
	movq	16(%rbp), %rax
	movq	%rdx, 8(%rax)
	.loc 14 949 0
	jmp	.L284
.L282:
	.loc 14 948 0
	movq	16(%rbp), %rcx
	call	_ZNSt6vectorINSt7__cxx1112basic_stringIcSt11char_traitsIcESaIcEEESaIS5_EE3endEv
	movq	%rax, %rdx
	movq	24(%rbp), %rax
	movq	%rax, %r8
	movq	16(%rbp), %rcx
	call	_ZNSt6vectorINSt7__cxx1112basic_stringIcSt11char_traitsIcESaIcEEESaIS5_EE17_M_realloc_insertIJRKS5_EEEvN9__gnu_cxx17__normal_iteratorIPS5_S7_EEDpOT_
.L284:
	.loc 14 949 0
	nop
	addq	$32, %rsp
	popq	%rbp
	.cfi_restore 6
	.cfi_def_cfa 7, 8
	ret
	.cfi_endproc
.LFE3429:
	.seh_endproc
	.section	.text$_ZSt11make_uniqueI12PrototypeASTJRNSt7__cxx1112basic_stringIcSt11char_traitsIcESaIcEEESt6vectorIS6_SaIS6_EEEENSt9_MakeUniqIT_E15__single_objectEDpOT0_,"x"
	.linkonce discard
	.globl	_ZSt11make_uniqueI12PrototypeASTJRNSt7__cxx1112basic_stringIcSt11char_traitsIcESaIcEEESt6vectorIS6_SaIS6_EEEENSt9_MakeUniqIT_E15__single_objectEDpOT0_
	.def	_ZSt11make_uniqueI12PrototypeASTJRNSt7__cxx1112basic_stringIcSt11char_traitsIcESaIcEEESt6vectorIS6_SaIS6_EEEENSt9_MakeUniqIT_E15__single_objectEDpOT0_;	.scl	2;	.type	32;	.endef
	.seh_proc	_ZSt11make_uniqueI12PrototypeASTJRNSt7__cxx1112basic_stringIcSt11char_traitsIcESaIcEEESt6vectorIS6_SaIS6_EEEENSt9_MakeUniqIT_E15__single_objectEDpOT0_
_ZSt11make_uniqueI12PrototypeASTJRNSt7__cxx1112basic_stringIcSt11char_traitsIcESaIcEEESt6vectorIS6_SaIS6_EEEENSt9_MakeUniqIT_E15__single_objectEDpOT0_:
.LFB3430:
	.loc 13 824 0
	.cfi_startproc
	.cfi_personality 0x9b,.LDFCM0
	.cfi_lsda 0x1c,.LLSDA3430
	pushq	%rbp
	.seh_pushreg	%rbp
	.cfi_def_cfa_offset 16
	.cfi_offset 6, -16
	pushq	%rdi
	.seh_pushreg	%rdi
	.cfi_def_cfa_offset 24
	.cfi_offset 5, -24
	pushq	%rsi
	.seh_pushreg	%rsi
	.cfi_def_cfa_offset 32
	.cfi_offset 4, -32
	pushq	%rbx
	.seh_pushreg	%rbx
	.cfi_def_cfa_offset 40
	.cfi_offset 3, -40
	subq	$72, %rsp
	.seh_stackalloc	72
	.cfi_def_cfa_offset 112
	leaq	128(%rsp), %rbp
	.seh_setframe	%rbp, 128
	.cfi_def_cfa 6, -16
	.seh_endprologue
	movq	%rcx, -16(%rbp)
	movq	%rdx, -8(%rbp)
	movq	%r8, 0(%rbp)
	.loc 13 825 0
	movq	-8(%rbp), %rax
	movq	%rax, %rcx
	call	_ZSt7forwardIRNSt7__cxx1112basic_stringIcSt11char_traitsIcESaIcEEEEOT_RNSt16remove_referenceIS7_E4typeE
	movq	%rax, %rdi
	movq	0(%rbp), %rax
	movq	%rax, %rcx
	call	_ZSt7forwardISt6vectorINSt7__cxx1112basic_stringIcSt11char_traitsIcESaIcEEESaIS6_EEEOT_RNSt16remove_referenceIS9_E4typeE
	movq	%rax, %rdx
	leaq	-96(%rbp), %rax
	movq	%rax, %rcx
	call	_ZNSt6vectorINSt7__cxx1112basic_stringIcSt11char_traitsIcESaIcEEESaIS5_EEC1EOS7_
	leaq	-96(%rbp), %rsi
	movl	$56, %ecx
.LEHB47:
	call	_Znwy
.LEHE47:
	movq	%rax, %rbx
	movq	%rsi, %r8
	movq	%rdi, %rdx
	movq	%rbx, %rcx
.LEHB48:
	call	_ZN12PrototypeASTC1ERKNSt7__cxx1112basic_stringIcSt11char_traitsIcESaIcEEESt6vectorIS5_SaIS5_EE
.LEHE48:
	.loc 13 825 0 is_stmt 0 discriminator 4
	movq	%rbx, %rdx
	movq	-16(%rbp), %rcx
	call	_ZNSt10unique_ptrI12PrototypeASTSt14default_deleteIS0_EEC1IS2_vEEPS0_
	leaq	-96(%rbp), %rax
	movq	%rax, %rcx
	call	_ZNSt6vectorINSt7__cxx1112basic_stringIcSt11char_traitsIcESaIcEEESaIS5_EED1Ev
	jmp	.L291
.L290:
	movq	%rax, %rsi
	.loc 13 825 0
	movl	$56, %edx
	movq	%rbx, %rcx
	call	_ZdlPvy
	movq	%rsi, %rbx
	jmp	.L288
.L289:
	movq	%rax, %rbx
.L288:
	.loc 13 825 0 discriminator 1
	leaq	-96(%rbp), %rax
	movq	%rax, %rcx
	call	_ZNSt6vectorINSt7__cxx1112basic_stringIcSt11char_traitsIcESaIcEEESaIS5_EED1Ev
	movq	%rbx, %rax
	movq	%rax, %rcx
.LEHB49:
	call	_Unwind_Resume
.LEHE49:
.L291:
	.loc 13 825 0
	movq	-16(%rbp), %rax
	addq	$72, %rsp
	popq	%rbx
	.cfi_restore 3
	popq	%rsi
	.cfi_restore 4
	popq	%rdi
	.cfi_restore 5
	popq	%rbp
	.cfi_restore 6
	.cfi_def_cfa 7, -40
	ret
	.cfi_endproc
.LFE3430:
	.seh_handler	__gxx_personality_seh0, @unwind, @except
	.seh_handlerdata
.LLSDA3430:
	.byte	0xff
	.byte	0xff
	.byte	0x1
	.uleb128 .LLSDACSE3430-.LLSDACSB3430
.LLSDACSB3430:
	.uleb128 .LEHB47-.LFB3430
	.uleb128 .LEHE47-.LEHB47
	.uleb128 .L289-.LFB3430
	.uleb128 0
	.uleb128 .LEHB48-.LFB3430
	.uleb128 .LEHE48-.LEHB48
	.uleb128 .L290-.LFB3430
	.uleb128 0
	.uleb128 .LEHB49-.LFB3430
	.uleb128 .LEHE49-.LEHB49
	.uleb128 0
	.uleb128 0
.LLSDACSE3430:
	.section	.text$_ZSt11make_uniqueI12PrototypeASTJRNSt7__cxx1112basic_stringIcSt11char_traitsIcESaIcEEESt6vectorIS6_SaIS6_EEEENSt9_MakeUniqIT_E15__single_objectEDpOT0_,"x"
	.linkonce discard
	.seh_endproc
	.section	.text$_ZNKSt10unique_ptrI12PrototypeASTSt14default_deleteIS0_EEcvbEv,"x"
	.linkonce discard
	.align 2
	.globl	_ZNKSt10unique_ptrI12PrototypeASTSt14default_deleteIS0_EEcvbEv
	.def	_ZNKSt10unique_ptrI12PrototypeASTSt14default_deleteIS0_EEcvbEv;	.scl	2;	.type	32;	.endef
	.seh_proc	_ZNKSt10unique_ptrI12PrototypeASTSt14default_deleteIS0_EEcvbEv
_ZNKSt10unique_ptrI12PrototypeASTSt14default_deleteIS0_EEcvbEv:
.LFB3431:
	.loc 13 350 0 is_stmt 1
	.cfi_startproc
	pushq	%rbp
	.seh_pushreg	%rbp
	.cfi_def_cfa_offset 16
	.cfi_offset 6, -16
	movq	%rsp, %rbp
	.seh_setframe	%rbp, 0
	.cfi_def_cfa_register 6
	subq	$32, %rsp
	.seh_stackalloc	32
	.seh_endprologue
	movq	%rcx, 16(%rbp)
	.loc 13 351 0
	movq	16(%rbp), %rcx
	call	_ZNKSt10unique_ptrI12PrototypeASTSt14default_deleteIS0_EE3getEv
	testq	%rax, %rax
	setne	%al
	addq	$32, %rsp
	popq	%rbp
	.cfi_restore 6
	.cfi_def_cfa 7, 8
	ret
	.cfi_endproc
.LFE3431:
	.seh_endproc
	.section	.text$_ZNSt5tupleIJP11FunctionASTSt14default_deleteIS0_EEEC1IS1_S3_Lb1EEEv,"x"
	.linkonce discard
	.align 2
	.globl	_ZNSt5tupleIJP11FunctionASTSt14default_deleteIS0_EEEC1IS1_S3_Lb1EEEv
	.def	_ZNSt5tupleIJP11FunctionASTSt14default_deleteIS0_EEEC1IS1_S3_Lb1EEEv;	.scl	2;	.type	32;	.endef
	.seh_proc	_ZNSt5tupleIJP11FunctionASTSt14default_deleteIS0_EEEC1IS1_S3_Lb1EEEv
_ZNSt5tupleIJP11FunctionASTSt14default_deleteIS0_EEEC1IS1_S3_Lb1EEEv:
.LFB3441:
	.loc 15 919 0
	.cfi_startproc
	pushq	%rbp
	.seh_pushreg	%rbp
	.cfi_def_cfa_offset 16
	.cfi_offset 6, -16
	movq	%rsp, %rbp
	.seh_setframe	%rbp, 0
	.cfi_def_cfa_register 6
	subq	$32, %rsp
	.seh_stackalloc	32
	.seh_endprologue
	movq	%rcx, 16(%rbp)
.LBB73:
	.loc 15 920 0
	movq	16(%rbp), %rax
	movq	%rax, %rcx
	call	_ZNSt11_Tuple_implILy0EJP11FunctionASTSt14default_deleteIS0_EEEC2Ev
.LBE73:
	nop
	addq	$32, %rsp
	popq	%rbp
	.cfi_restore 6
	.cfi_def_cfa 7, 8
	ret
	.cfi_endproc
.LFE3441:
	.seh_endproc
	.section	.text$_ZNSt15__uniq_ptr_implI11FunctionASTSt14default_deleteIS0_EEC1Ev,"x"
	.linkonce discard
	.align 2
	.globl	_ZNSt15__uniq_ptr_implI11FunctionASTSt14default_deleteIS0_EEC1Ev
	.def	_ZNSt15__uniq_ptr_implI11FunctionASTSt14default_deleteIS0_EEC1Ev;	.scl	2;	.type	32;	.endef
	.seh_proc	_ZNSt15__uniq_ptr_implI11FunctionASTSt14default_deleteIS0_EEC1Ev
_ZNSt15__uniq_ptr_implI11FunctionASTSt14default_deleteIS0_EEC1Ev:
.LFB3443:
	.loc 13 139 0
	.cfi_startproc
	pushq	%rbp
	.seh_pushreg	%rbp
	.cfi_def_cfa_offset 16
	.cfi_offset 6, -16
	movq	%rsp, %rbp
	.seh_setframe	%rbp, 0
	.cfi_def_cfa_register 6
	subq	$32, %rsp
	.seh_stackalloc	32
	.seh_endprologue
	movq	%rcx, 16(%rbp)
.LBB74:
	.loc 13 139 0
	movq	16(%rbp), %rax
	movq	%rax, %rcx
	call	_ZNSt5tupleIJP11FunctionASTSt14default_deleteIS0_EEEC1IS1_S3_Lb1EEEv
.LBE74:
	nop
	addq	$32, %rsp
	popq	%rbp
	.cfi_restore 6
	.cfi_def_cfa 7, 8
	ret
	.cfi_endproc
.LFE3443:
	.seh_endproc
	.section	.text$_ZNSt10unique_ptrI11FunctionASTSt14default_deleteIS0_EEC1IS2_vEEv,"x"
	.linkonce discard
	.align 2
	.globl	_ZNSt10unique_ptrI11FunctionASTSt14default_deleteIS0_EEC1IS2_vEEv
	.def	_ZNSt10unique_ptrI11FunctionASTSt14default_deleteIS0_EEC1IS2_vEEv;	.scl	2;	.type	32;	.endef
	.seh_proc	_ZNSt10unique_ptrI11FunctionASTSt14default_deleteIS0_EEC1IS2_vEEv
_ZNSt10unique_ptrI11FunctionASTSt14default_deleteIS0_EEC1IS2_vEEv:
.LFB3445:
	.loc 13 188 0
	.cfi_startproc
	.cfi_personality 0x9b,.LDFCM0
	.cfi_lsda 0x1c,.LLSDA3445
	pushq	%rbp
	.seh_pushreg	%rbp
	.cfi_def_cfa_offset 16
	.cfi_offset 6, -16
	movq	%rsp, %rbp
	.seh_setframe	%rbp, 0
	.cfi_def_cfa_register 6
	subq	$32, %rsp
	.seh_stackalloc	32
	.seh_endprologue
	movq	%rcx, 16(%rbp)
.LBB75:
	.loc 13 189 0
	movq	16(%rbp), %rax
	movq	$0, (%rax)
	movq	16(%rbp), %rax
	movq	%rax, %rcx
	call	_ZNSt15__uniq_ptr_implI11FunctionASTSt14default_deleteIS0_EEC1Ev
.LBE75:
	.loc 13 190 0
	nop
	addq	$32, %rsp
	popq	%rbp
	.cfi_restore 6
	.cfi_def_cfa 7, 8
	ret
	.cfi_endproc
.LFE3445:
	.seh_handler	__gxx_personality_seh0, @unwind, @except
	.seh_handlerdata
.LLSDA3445:
	.byte	0xff
	.byte	0xff
	.byte	0x1
	.uleb128 .LLSDACSE3445-.LLSDACSB3445
.LLSDACSB3445:
.LLSDACSE3445:
	.section	.text$_ZNSt10unique_ptrI11FunctionASTSt14default_deleteIS0_EEC1IS2_vEEv,"x"
	.linkonce discard
	.seh_endproc
	.section	.text$_ZNSt10unique_ptrI11FunctionASTSt14default_deleteIS0_EEC1IS2_vEEDn,"x"
	.linkonce discard
	.align 2
	.globl	_ZNSt10unique_ptrI11FunctionASTSt14default_deleteIS0_EEC1IS2_vEEDn
	.def	_ZNSt10unique_ptrI11FunctionASTSt14default_deleteIS0_EEC1IS2_vEEDn;	.scl	2;	.type	32;	.endef
	.seh_proc	_ZNSt10unique_ptrI11FunctionASTSt14default_deleteIS0_EEC1IS2_vEEDn
_ZNSt10unique_ptrI11FunctionASTSt14default_deleteIS0_EEC1IS2_vEEDn:
.LFB3447:
	.loc 13 233 0
	.cfi_startproc
	pushq	%rbp
	.seh_pushreg	%rbp
	.cfi_def_cfa_offset 16
	.cfi_offset 6, -16
	movq	%rsp, %rbp
	.seh_setframe	%rbp, 0
	.cfi_def_cfa_register 6
	subq	$32, %rsp
	.seh_stackalloc	32
	.seh_endprologue
	movq	%rcx, 16(%rbp)
	movq	%rdx, 24(%rbp)
.LBB76:
	.loc 13 233 0
	movq	16(%rbp), %rcx
	call	_ZNSt10unique_ptrI11FunctionASTSt14default_deleteIS0_EEC1IS2_vEEv
.LBE76:
	nop
	addq	$32, %rsp
	popq	%rbp
	.cfi_restore 6
	.cfi_def_cfa 7, 8
	ret
	.cfi_endproc
.LFE3447:
	.seh_endproc
	.section	.text$_ZNSt10unique_ptrI11FunctionASTSt14default_deleteIS0_EED1Ev,"x"
	.linkonce discard
	.align 2
	.globl	_ZNSt10unique_ptrI11FunctionASTSt14default_deleteIS0_EED1Ev
	.def	_ZNSt10unique_ptrI11FunctionASTSt14default_deleteIS0_EED1Ev;	.scl	2;	.type	32;	.endef
	.seh_proc	_ZNSt10unique_ptrI11FunctionASTSt14default_deleteIS0_EED1Ev
_ZNSt10unique_ptrI11FunctionASTSt14default_deleteIS0_EED1Ev:
.LFB3450:
	.loc 13 264 0
	.cfi_startproc
	pushq	%rbp
	.seh_pushreg	%rbp
	.cfi_def_cfa_offset 16
	.cfi_offset 6, -16
	movq	%rsp, %rbp
	.seh_setframe	%rbp, 0
	.cfi_def_cfa_register 6
	subq	$48, %rsp
	.seh_stackalloc	48
	.seh_endprologue
	movq	%rcx, 16(%rbp)
.LBB77:
.LBB78:
	.loc 13 266 0
	movq	16(%rbp), %rax
	movq	%rax, %rcx
	call	_ZNSt15__uniq_ptr_implI11FunctionASTSt14default_deleteIS0_EE6_M_ptrEv
	movq	%rax, -8(%rbp)
	.loc 13 267 0
	movq	-8(%rbp), %rax
	movq	(%rax), %rax
	testq	%rax, %rax
	je	.L299
	.loc 13 268 0
	movq	16(%rbp), %rcx
	call	_ZNSt10unique_ptrI11FunctionASTSt14default_deleteIS0_EE11get_deleterEv
	movq	%rax, %rcx
	movq	-8(%rbp), %rax
	movq	(%rax), %rax
	movq	%rax, %rdx
	call	_ZNKSt14default_deleteI11FunctionASTEclEPS0_
.L299:
	.loc 13 269 0
	movq	-8(%rbp), %rax
	movq	$0, (%rax)
.LBE78:
.LBE77:
	.loc 13 270 0
	nop
	addq	$48, %rsp
	popq	%rbp
	.cfi_restore 6
	.cfi_def_cfa 7, 8
	ret
	.cfi_endproc
.LFE3450:
	.seh_endproc
	.section	.text$_ZSt11make_uniqueI11FunctionASTJSt10unique_ptrI12PrototypeASTSt14default_deleteIS2_EES1_I7ExprASTS3_IS6_EEEENSt9_MakeUniqIT_E15__single_objectEDpOT0_,"x"
	.linkonce discard
	.globl	_ZSt11make_uniqueI11FunctionASTJSt10unique_ptrI12PrototypeASTSt14default_deleteIS2_EES1_I7ExprASTS3_IS6_EEEENSt9_MakeUniqIT_E15__single_objectEDpOT0_
	.def	_ZSt11make_uniqueI11FunctionASTJSt10unique_ptrI12PrototypeASTSt14default_deleteIS2_EES1_I7ExprASTS3_IS6_EEEENSt9_MakeUniqIT_E15__single_objectEDpOT0_;	.scl	2;	.type	32;	.endef
	.seh_proc	_ZSt11make_uniqueI11FunctionASTJSt10unique_ptrI12PrototypeASTSt14default_deleteIS2_EES1_I7ExprASTS3_IS6_EEEENSt9_MakeUniqIT_E15__single_objectEDpOT0_
_ZSt11make_uniqueI11FunctionASTJSt10unique_ptrI12PrototypeASTSt14default_deleteIS2_EES1_I7ExprASTS3_IS6_EEEENSt9_MakeUniqIT_E15__single_objectEDpOT0_:
.LFB3454:
	.loc 13 824 0
	.cfi_startproc
	.cfi_personality 0x9b,.LDFCM0
	.cfi_lsda 0x1c,.LLSDA3454
	pushq	%rbp
	.seh_pushreg	%rbp
	.cfi_def_cfa_offset 16
	.cfi_offset 6, -16
	pushq	%rdi
	.seh_pushreg	%rdi
	.cfi_def_cfa_offset 24
	.cfi_offset 5, -24
	pushq	%rsi
	.seh_pushreg	%rsi
	.cfi_def_cfa_offset 32
	.cfi_offset 4, -32
	pushq	%rbx
	.seh_pushreg	%rbx
	.cfi_def_cfa_offset 40
	.cfi_offset 3, -40
	subq	$56, %rsp
	.seh_stackalloc	56
	.cfi_def_cfa_offset 96
	leaq	128(%rsp), %rbp
	.seh_setframe	%rbp, 128
	.cfi_def_cfa 6, -32
	.seh_endprologue
	movq	%rcx, -32(%rbp)
	movq	%rdx, -24(%rbp)
	movq	%r8, -16(%rbp)
	.loc 13 825 0
	movq	-24(%rbp), %rax
	movq	%rax, %rcx
	call	_ZSt7forwardISt10unique_ptrI12PrototypeASTSt14default_deleteIS1_EEEOT_RNSt16remove_referenceIS5_E4typeE
	movq	%rax, %rdx
	leaq	-96(%rbp), %rax
	movq	%rax, %rcx
	call	_ZNSt10unique_ptrI12PrototypeASTSt14default_deleteIS0_EEC1EOS3_
	leaq	-96(%rbp), %rsi
	movq	-16(%rbp), %rax
	movq	%rax, %rcx
	call	_ZSt7forwardISt10unique_ptrI7ExprASTSt14default_deleteIS1_EEEOT_RNSt16remove_referenceIS5_E4typeE
	movq	%rax, %rdx
	leaq	-88(%rbp), %rax
	movq	%rax, %rcx
	call	_ZNSt10unique_ptrI7ExprASTSt14default_deleteIS0_EEC1EOS3_
	leaq	-88(%rbp), %rdi
	movl	$16, %ecx
.LEHB50:
	call	_Znwy
.LEHE50:
	movq	%rax, %rbx
	movq	%rdi, %r8
	movq	%rsi, %rdx
	movq	%rbx, %rcx
	call	_ZN11FunctionASTC1ESt10unique_ptrI12PrototypeASTSt14default_deleteIS1_EES0_I7ExprASTS2_IS5_EE
	movq	%rbx, %rdx
	movq	-32(%rbp), %rcx
	call	_ZNSt10unique_ptrI11FunctionASTSt14default_deleteIS0_EEC1IS2_vEEPS0_
	leaq	-88(%rbp), %rax
	movq	%rax, %rcx
	call	_ZNSt10unique_ptrI7ExprASTSt14default_deleteIS0_EED1Ev
	leaq	-96(%rbp), %rax
	movq	%rax, %rcx
	call	_ZNSt10unique_ptrI12PrototypeASTSt14default_deleteIS0_EED1Ev
	jmp	.L304
.L303:
	movq	%rax, %rbx
	leaq	-88(%rbp), %rax
	movq	%rax, %rcx
	call	_ZNSt10unique_ptrI7ExprASTSt14default_deleteIS0_EED1Ev
	leaq	-96(%rbp), %rax
	movq	%rax, %rcx
	call	_ZNSt10unique_ptrI12PrototypeASTSt14default_deleteIS0_EED1Ev
	movq	%rbx, %rax
	movq	%rax, %rcx
.LEHB51:
	call	_Unwind_Resume
.LEHE51:
.L304:
	movq	-32(%rbp), %rax
	addq	$56, %rsp
	popq	%rbx
	.cfi_restore 3
	popq	%rsi
	.cfi_restore 4
	popq	%rdi
	.cfi_restore 5
	popq	%rbp
	.cfi_restore 6
	.cfi_def_cfa 7, -24
	ret
	.cfi_endproc
.LFE3454:
	.seh_handler	__gxx_personality_seh0, @unwind, @except
	.seh_handlerdata
.LLSDA3454:
	.byte	0xff
	.byte	0xff
	.byte	0x1
	.uleb128 .LLSDACSE3454-.LLSDACSB3454
.LLSDACSB3454:
	.uleb128 .LEHB50-.LFB3454
	.uleb128 .LEHE50-.LEHB50
	.uleb128 .L303-.LFB3454
	.uleb128 0
	.uleb128 .LEHB51-.LFB3454
	.uleb128 .LEHE51-.LEHB51
	.uleb128 0
	.uleb128 0
.LLSDACSE3454:
	.section	.text$_ZSt11make_uniqueI11FunctionASTJSt10unique_ptrI12PrototypeASTSt14default_deleteIS2_EES1_I7ExprASTS3_IS6_EEEENSt9_MakeUniqIT_E15__single_objectEDpOT0_,"x"
	.linkonce discard
	.seh_endproc
	.section	.text$_ZSt11make_uniqueI12PrototypeASTJRA12_KcSt6vectorINSt7__cxx1112basic_stringIcSt11char_traitsIcESaIcEEESaISA_EEEENSt9_MakeUniqIT_E15__single_objectEDpOT0_,"x"
	.linkonce discard
	.globl	_ZSt11make_uniqueI12PrototypeASTJRA12_KcSt6vectorINSt7__cxx1112basic_stringIcSt11char_traitsIcESaIcEEESaISA_EEEENSt9_MakeUniqIT_E15__single_objectEDpOT0_
	.def	_ZSt11make_uniqueI12PrototypeASTJRA12_KcSt6vectorINSt7__cxx1112basic_stringIcSt11char_traitsIcESaIcEEESaISA_EEEENSt9_MakeUniqIT_E15__single_objectEDpOT0_;	.scl	2;	.type	32;	.endef
	.seh_proc	_ZSt11make_uniqueI12PrototypeASTJRA12_KcSt6vectorINSt7__cxx1112basic_stringIcSt11char_traitsIcESaIcEEESaISA_EEEENSt9_MakeUniqIT_E15__single_objectEDpOT0_
_ZSt11make_uniqueI12PrototypeASTJRA12_KcSt6vectorINSt7__cxx1112basic_stringIcSt11char_traitsIcESaIcEEESaISA_EEEENSt9_MakeUniqIT_E15__single_objectEDpOT0_:
.LFB3455:
	.loc 13 824 0
	.cfi_startproc
	.cfi_personality 0x9b,.LDFCM0
	.cfi_lsda 0x1c,.LLSDA3455
	pushq	%rbp
	.seh_pushreg	%rbp
	.cfi_def_cfa_offset 16
	.cfi_offset 6, -16
	pushq	%rdi
	.seh_pushreg	%rdi
	.cfi_def_cfa_offset 24
	.cfi_offset 5, -24
	pushq	%rsi
	.seh_pushreg	%rsi
	.cfi_def_cfa_offset 32
	.cfi_offset 4, -32
	pushq	%rbx
	.seh_pushreg	%rbx
	.cfi_def_cfa_offset 40
	.cfi_offset 3, -40
	subq	$120, %rsp
	.seh_stackalloc	120
	.cfi_def_cfa_offset 160
	leaq	128(%rsp), %rbp
	.seh_setframe	%rbp, 128
	.cfi_def_cfa 6, 32
	.seh_endprologue
	movq	%rcx, 32(%rbp)
	movq	%rdx, 40(%rbp)
	movq	%r8, 48(%rbp)
	.loc 13 825 0
	leaq	-49(%rbp), %rax
	movq	%rax, %rcx
	call	_ZNSaIcEC1Ev
	movq	40(%rbp), %rax
	movq	%rax, %rcx
	call	_ZSt7forwardIRA12_KcEOT_RNSt16remove_referenceIS3_E4typeE
	movq	%rax, %rcx
	leaq	-49(%rbp), %rdx
	leaq	-96(%rbp), %rax
	movq	%rdx, %r8
	movq	%rcx, %rdx
	movq	%rax, %rcx
.LEHB52:
	call	_ZNSt7__cxx1112basic_stringIcSt11char_traitsIcESaIcEEC1EPKcRKS3_
.LEHE52:
	.loc 13 825 0 is_stmt 0 discriminator 2
	leaq	-96(%rbp), %rsi
	movq	48(%rbp), %rax
	movq	%rax, %rcx
	call	_ZSt7forwardISt6vectorINSt7__cxx1112basic_stringIcSt11char_traitsIcESaIcEEESaIS6_EEEOT_RNSt16remove_referenceIS9_E4typeE
	movq	%rax, %rdx
	leaq	-48(%rbp), %rax
	movq	%rax, %rcx
	call	_ZNSt6vectorINSt7__cxx1112basic_stringIcSt11char_traitsIcESaIcEEESaIS5_EEC1EOS7_
	leaq	-48(%rbp), %rdi
	movl	$56, %ecx
.LEHB53:
	call	_Znwy
.LEHE53:
	movq	%rax, %rbx
	movq	%rdi, %r8
	movq	%rsi, %rdx
	movq	%rbx, %rcx
.LEHB54:
	call	_ZN12PrototypeASTC1ERKNSt7__cxx1112basic_stringIcSt11char_traitsIcESaIcEEESt6vectorIS5_SaIS5_EE
.LEHE54:
	.loc 13 825 0 discriminator 6
	movq	%rbx, %rdx
	movq	32(%rbp), %rcx
	call	_ZNSt10unique_ptrI12PrototypeASTSt14default_deleteIS0_EEC1IS2_vEEPS0_
	leaq	-48(%rbp), %rax
	movq	%rax, %rcx
	call	_ZNSt6vectorINSt7__cxx1112basic_stringIcSt11char_traitsIcESaIcEEESaIS5_EED1Ev
	leaq	-96(%rbp), %rax
	movq	%rax, %rcx
	call	_ZNSt7__cxx1112basic_stringIcSt11char_traitsIcESaIcEED1Ev
	leaq	-49(%rbp), %rax
	movq	%rax, %rcx
	call	_ZNSaIcED1Ev
	jmp	.L313
.L312:
	movq	%rax, %rsi
	.loc 13 825 0
	movl	$56, %edx
	movq	%rbx, %rcx
	call	_ZdlPvy
	movq	%rsi, %rbx
	jmp	.L308
.L311:
	movq	%rax, %rbx
.L308:
	.loc 13 825 0 discriminator 3
	leaq	-48(%rbp), %rax
	movq	%rax, %rcx
	call	_ZNSt6vectorINSt7__cxx1112basic_stringIcSt11char_traitsIcESaIcEEESaIS5_EED1Ev
	leaq	-96(%rbp), %rax
	movq	%rax, %rcx
	call	_ZNSt7__cxx1112basic_stringIcSt11char_traitsIcESaIcEED1Ev
	jmp	.L309
.L310:
	movq	%rax, %rbx
.L309:
	.loc 13 825 0 discriminator 1
	leaq	-49(%rbp), %rax
	movq	%rax, %rcx
	call	_ZNSaIcED1Ev
	movq	%rbx, %rax
	movq	%rax, %rcx
.LEHB55:
	call	_Unwind_Resume
.LEHE55:
.L313:
	.loc 13 825 0
	movq	32(%rbp), %rax
	addq	$120, %rsp
	popq	%rbx
	.cfi_restore 3
	popq	%rsi
	.cfi_restore 4
	popq	%rdi
	.cfi_restore 5
	popq	%rbp
	.cfi_restore 6
	.cfi_def_cfa 7, -88
	ret
	.cfi_endproc
.LFE3455:
	.seh_handler	__gxx_personality_seh0, @unwind, @except
	.seh_handlerdata
.LLSDA3455:
	.byte	0xff
	.byte	0xff
	.byte	0x1
	.uleb128 .LLSDACSE3455-.LLSDACSB3455
.LLSDACSB3455:
	.uleb128 .LEHB52-.LFB3455
	.uleb128 .LEHE52-.LEHB52
	.uleb128 .L310-.LFB3455
	.uleb128 0
	.uleb128 .LEHB53-.LFB3455
	.uleb128 .LEHE53-.LEHB53
	.uleb128 .L311-.LFB3455
	.uleb128 0
	.uleb128 .LEHB54-.LFB3455
	.uleb128 .LEHE54-.LEHB54
	.uleb128 .L312-.LFB3455
	.uleb128 0
	.uleb128 .LEHB55-.LFB3455
	.uleb128 .LEHE55-.LEHB55
	.uleb128 0
	.uleb128 0
.LLSDACSE3455:
	.section	.text$_ZSt11make_uniqueI12PrototypeASTJRA12_KcSt6vectorINSt7__cxx1112basic_stringIcSt11char_traitsIcESaIcEEESaISA_EEEENSt9_MakeUniqIT_E15__single_objectEDpOT0_,"x"
	.linkonce discard
	.seh_endproc
	.section	.text$_ZNKSt10unique_ptrI11FunctionASTSt14default_deleteIS0_EEcvbEv,"x"
	.linkonce discard
	.align 2
	.globl	_ZNKSt10unique_ptrI11FunctionASTSt14default_deleteIS0_EEcvbEv
	.def	_ZNKSt10unique_ptrI11FunctionASTSt14default_deleteIS0_EEcvbEv;	.scl	2;	.type	32;	.endef
	.seh_proc	_ZNKSt10unique_ptrI11FunctionASTSt14default_deleteIS0_EEcvbEv
_ZNKSt10unique_ptrI11FunctionASTSt14default_deleteIS0_EEcvbEv:
.LFB3456:
	.loc 13 350 0 is_stmt 1
	.cfi_startproc
	pushq	%rbp
	.seh_pushreg	%rbp
	.cfi_def_cfa_offset 16
	.cfi_offset 6, -16
	movq	%rsp, %rbp
	.seh_setframe	%rbp, 0
	.cfi_def_cfa_register 6
	subq	$32, %rsp
	.seh_stackalloc	32
	.seh_endprologue
	movq	%rcx, 16(%rbp)
	.loc 13 351 0
	movq	16(%rbp), %rcx
	call	_ZNKSt10unique_ptrI11FunctionASTSt14default_deleteIS0_EE3getEv
	testq	%rax, %rax
	setne	%al
	addq	$32, %rsp
	popq	%rbp
	.cfi_restore 6
	.cfi_def_cfa 7, 8
	ret
	.cfi_endproc
.LFE3456:
	.seh_endproc
	.section	.text$_ZNSt10unique_ptrI7ExprASTSt14default_deleteIS0_EE7releaseEv,"x"
	.linkonce discard
	.align 2
	.globl	_ZNSt10unique_ptrI7ExprASTSt14default_deleteIS0_EE7releaseEv
	.def	_ZNSt10unique_ptrI7ExprASTSt14default_deleteIS0_EE7releaseEv;	.scl	2;	.type	32;	.endef
	.seh_proc	_ZNSt10unique_ptrI7ExprASTSt14default_deleteIS0_EE7releaseEv
_ZNSt10unique_ptrI7ExprASTSt14default_deleteIS0_EE7releaseEv:
.LFB3571:
	.loc 13 357 0
	.cfi_startproc
	pushq	%rbp
	.seh_pushreg	%rbp
	.cfi_def_cfa_offset 16
	.cfi_offset 6, -16
	movq	%rsp, %rbp
	.seh_setframe	%rbp, 0
	.cfi_def_cfa_register 6
	subq	$48, %rsp
	.seh_stackalloc	48
	.seh_endprologue
	movq	%rcx, 16(%rbp)
	.loc 13 359 0
	movq	16(%rbp), %rcx
	call	_ZNKSt10unique_ptrI7ExprASTSt14default_deleteIS0_EE3getEv
	movq	%rax, -8(%rbp)
	.loc 13 360 0
	movq	16(%rbp), %rax
	movq	%rax, %rcx
	call	_ZNSt15__uniq_ptr_implI7ExprASTSt14default_deleteIS0_EE6_M_ptrEv
	movq	$0, (%rax)
	.loc 13 361 0
	movq	-8(%rbp), %rax
	.loc 13 362 0
	addq	$48, %rsp
	popq	%rbp
	.cfi_restore 6
	.cfi_def_cfa 7, 8
	ret
	.cfi_endproc
.LFE3571:
	.seh_endproc
	.section	.text$_ZNSt10unique_ptrI7ExprASTSt14default_deleteIS0_EE11get_deleterEv,"x"
	.linkonce discard
	.align 2
	.globl	_ZNSt10unique_ptrI7ExprASTSt14default_deleteIS0_EE11get_deleterEv
	.def	_ZNSt10unique_ptrI7ExprASTSt14default_deleteIS0_EE11get_deleterEv;	.scl	2;	.type	32;	.endef
	.seh_proc	_ZNSt10unique_ptrI7ExprASTSt14default_deleteIS0_EE11get_deleterEv
_ZNSt10unique_ptrI7ExprASTSt14default_deleteIS0_EE11get_deleterEv:
.LFB3572:
	.loc 13 341 0
	.cfi_startproc
	pushq	%rbp
	.seh_pushreg	%rbp
	.cfi_def_cfa_offset 16
	.cfi_offset 6, -16
	movq	%rsp, %rbp
	.seh_setframe	%rbp, 0
	.cfi_def_cfa_register 6
	subq	$32, %rsp
	.seh_stackalloc	32
	.seh_endprologue
	movq	%rcx, 16(%rbp)
	.loc 13 342 0
	movq	16(%rbp), %rax
	movq	%rax, %rcx
	call	_ZNSt15__uniq_ptr_implI7ExprASTSt14default_deleteIS0_EE10_M_deleterEv
	addq	$32, %rsp
	popq	%rbp
	.cfi_restore 6
	.cfi_def_cfa 7, 8
	ret
	.cfi_endproc
.LFE3572:
	.seh_endproc
	.section	.text$_ZSt7forwardISt14default_deleteI7ExprASTEEOT_RNSt16remove_referenceIS3_E4typeE,"x"
	.linkonce discard
	.globl	_ZSt7forwardISt14default_deleteI7ExprASTEEOT_RNSt16remove_referenceIS3_E4typeE
	.def	_ZSt7forwardISt14default_deleteI7ExprASTEEOT_RNSt16remove_referenceIS3_E4typeE;	.scl	2;	.type	32;	.endef
	.seh_proc	_ZSt7forwardISt14default_deleteI7ExprASTEEOT_RNSt16remove_referenceIS3_E4typeE
_ZSt7forwardISt14default_deleteI7ExprASTEEOT_RNSt16remove_referenceIS3_E4typeE:
.LFB3573:
	.loc 12 73 0
	.cfi_startproc
	pushq	%rbp
	.seh_pushreg	%rbp
	.cfi_def_cfa_offset 16
	.cfi_offset 6, -16
	movq	%rsp, %rbp
	.seh_setframe	%rbp, 0
	.cfi_def_cfa_register 6
	.seh_endprologue
	movq	%rcx, 16(%rbp)
	.loc 12 74 0
	movq	16(%rbp), %rax
	popq	%rbp
	.cfi_restore 6
	.cfi_def_cfa 7, 8
	ret
	.cfi_endproc
.LFE3573:
	.seh_endproc
	.section	.text$_ZNSt15__uniq_ptr_implI7ExprASTSt14default_deleteIS0_EEC1IS2_EEPS0_OT_,"x"
	.linkonce discard
	.align 2
	.globl	_ZNSt15__uniq_ptr_implI7ExprASTSt14default_deleteIS0_EEC1IS2_EEPS0_OT_
	.def	_ZNSt15__uniq_ptr_implI7ExprASTSt14default_deleteIS0_EEC1IS2_EEPS0_OT_;	.scl	2;	.type	32;	.endef
	.seh_proc	_ZNSt15__uniq_ptr_implI7ExprASTSt14default_deleteIS0_EEC1IS2_EEPS0_OT_
_ZNSt15__uniq_ptr_implI7ExprASTSt14default_deleteIS0_EEC1IS2_EEPS0_OT_:
.LFB3578:
	.loc 13 143 0
	.cfi_startproc
	pushq	%rbp
	.seh_pushreg	%rbp
	.cfi_def_cfa_offset 16
	.cfi_offset 6, -16
	pushq	%rbx
	.seh_pushreg	%rbx
	.cfi_def_cfa_offset 24
	.cfi_offset 3, -24
	subq	$40, %rsp
	.seh_stackalloc	40
	.cfi_def_cfa_offset 64
	leaq	128(%rsp), %rbp
	.seh_setframe	%rbp, 128
	.cfi_def_cfa 6, -64
	.seh_endprologue
	movq	%rcx, -64(%rbp)
	movq	%rdx, -56(%rbp)
	movq	%r8, -48(%rbp)
.LBB79:
	.loc 13 144 0
	movq	-64(%rbp), %rbx
	movq	-48(%rbp), %rax
	movq	%rax, %rcx
	call	_ZSt7forwardISt14default_deleteI7ExprASTEEOT_RNSt16remove_referenceIS3_E4typeE
	movq	%rax, %rdx
	leaq	-56(%rbp), %rax
	movq	%rdx, %r8
	movq	%rax, %rdx
	movq	%rbx, %rcx
	call	_ZNSt5tupleIJP7ExprASTSt14default_deleteIS0_EEEC1IRS1_S3_Lb1EEEOT_OT0_
.LBE79:
	nop
	addq	$40, %rsp
	popq	%rbx
	.cfi_restore 3
	popq	%rbp
	.cfi_restore 6
	.cfi_def_cfa 7, -24
	ret
	.cfi_endproc
.LFE3578:
	.seh_endproc
	.section	.text$_ZNSt15__uniq_ptr_implI7ExprASTSt14default_deleteIS0_EE6_M_ptrEv,"x"
	.linkonce discard
	.align 2
	.globl	_ZNSt15__uniq_ptr_implI7ExprASTSt14default_deleteIS0_EE6_M_ptrEv
	.def	_ZNSt15__uniq_ptr_implI7ExprASTSt14default_deleteIS0_EE6_M_ptrEv;	.scl	2;	.type	32;	.endef
	.seh_proc	_ZNSt15__uniq_ptr_implI7ExprASTSt14default_deleteIS0_EE6_M_ptrEv
_ZNSt15__uniq_ptr_implI7ExprASTSt14default_deleteIS0_EE6_M_ptrEv:
.LFB3579:
	.loc 13 146 0
	.cfi_startproc
	pushq	%rbp
	.seh_pushreg	%rbp
	.cfi_def_cfa_offset 16
	.cfi_offset 6, -16
	movq	%rsp, %rbp
	.seh_setframe	%rbp, 0
	.cfi_def_cfa_register 6
	subq	$32, %rsp
	.seh_stackalloc	32
	.seh_endprologue
	movq	%rcx, 16(%rbp)
	.loc 13 146 0
	movq	16(%rbp), %rax
	movq	%rax, %rcx
	call	_ZSt3getILy0EJP7ExprASTSt14default_deleteIS0_EEERNSt13tuple_elementIXT_ESt5tupleIJDpT0_EEE4typeERS8_
	addq	$32, %rsp
	popq	%rbp
	.cfi_restore 6
	.cfi_def_cfa 7, 8
	ret
	.cfi_endproc
.LFE3579:
	.seh_endproc
	.section	.text$_ZNKSt14default_deleteI7ExprASTEclEPS0_,"x"
	.linkonce discard
	.align 2
	.globl	_ZNKSt14default_deleteI7ExprASTEclEPS0_
	.def	_ZNKSt14default_deleteI7ExprASTEclEPS0_;	.scl	2;	.type	32;	.endef
	.seh_proc	_ZNKSt14default_deleteI7ExprASTEclEPS0_
_ZNKSt14default_deleteI7ExprASTEclEPS0_:
.LFB3580:
	.loc 13 72 0
	.cfi_startproc
	pushq	%rbp
	.seh_pushreg	%rbp
	.cfi_def_cfa_offset 16
	.cfi_offset 6, -16
	movq	%rsp, %rbp
	.seh_setframe	%rbp, 0
	.cfi_def_cfa_register 6
	subq	$32, %rsp
	.seh_stackalloc	32
	.seh_endprologue
	movq	%rcx, 16(%rbp)
	movq	%rdx, 24(%rbp)
	.loc 13 78 0
	cmpq	$0, 24(%rbp)
	je	.L327
	.loc 13 78 0 is_stmt 0 discriminator 1
	movq	24(%rbp), %rax
	movq	(%rax), %rax
	addq	$8, %rax
	movq	(%rax), %rax
	movq	24(%rbp), %rdx
	movq	%rdx, %rcx
	call	*%rax
.LVL10:
.L327:
	.loc 13 79 0 is_stmt 1
	nop
	addq	$32, %rsp
	popq	%rbp
	.cfi_restore 6
	.cfi_def_cfa 7, 8
	ret
	.cfi_endproc
.LFE3580:
	.seh_endproc
	.section	.text$_ZNSt12_Vector_baseISt10unique_ptrI7ExprASTSt14default_deleteIS1_EESaIS4_EE12_Vector_implD1Ev,"x"
	.linkonce discard
	.align 2
	.globl	_ZNSt12_Vector_baseISt10unique_ptrI7ExprASTSt14default_deleteIS1_EESaIS4_EE12_Vector_implD1Ev
	.def	_ZNSt12_Vector_baseISt10unique_ptrI7ExprASTSt14default_deleteIS1_EESaIS4_EE12_Vector_implD1Ev;	.scl	2;	.type	32;	.endef
	.seh_proc	_ZNSt12_Vector_baseISt10unique_ptrI7ExprASTSt14default_deleteIS1_EESaIS4_EE12_Vector_implD1Ev
_ZNSt12_Vector_baseISt10unique_ptrI7ExprASTSt14default_deleteIS1_EESaIS4_EE12_Vector_implD1Ev:
.LFB3584:
	.loc 14 81 0
	.cfi_startproc
	pushq	%rbp
	.seh_pushreg	%rbp
	.cfi_def_cfa_offset 16
	.cfi_offset 6, -16
	movq	%rsp, %rbp
	.seh_setframe	%rbp, 0
	.cfi_def_cfa_register 6
	subq	$32, %rsp
	.seh_stackalloc	32
	.seh_endprologue
	movq	%rcx, 16(%rbp)
.LBB80:
	.loc 14 81 0
	movq	16(%rbp), %rcx
	call	_ZNSaISt10unique_ptrI7ExprASTSt14default_deleteIS0_EEED2Ev
.LBE80:
	nop
	addq	$32, %rsp
	popq	%rbp
	.cfi_restore 6
	.cfi_def_cfa 7, 8
	ret
	.cfi_endproc
.LFE3584:
	.seh_endproc
	.section	.text$_ZNSt12_Vector_baseISt10unique_ptrI7ExprASTSt14default_deleteIS1_EESaIS4_EEC2EOS6_,"x"
	.linkonce discard
	.align 2
	.globl	_ZNSt12_Vector_baseISt10unique_ptrI7ExprASTSt14default_deleteIS1_EESaIS4_EEC2EOS6_
	.def	_ZNSt12_Vector_baseISt10unique_ptrI7ExprASTSt14default_deleteIS1_EESaIS4_EEC2EOS6_;	.scl	2;	.type	32;	.endef
	.seh_proc	_ZNSt12_Vector_baseISt10unique_ptrI7ExprASTSt14default_deleteIS1_EESaIS4_EEC2EOS6_
_ZNSt12_Vector_baseISt10unique_ptrI7ExprASTSt14default_deleteIS1_EESaIS4_EEC2EOS6_:
.LFB3585:
	.loc 14 144 0
	.cfi_startproc
	pushq	%rbp
	.seh_pushreg	%rbp
	.cfi_def_cfa_offset 16
	.cfi_offset 6, -16
	pushq	%rbx
	.seh_pushreg	%rbx
	.cfi_def_cfa_offset 24
	.cfi_offset 3, -24
	subq	$40, %rsp
	.seh_stackalloc	40
	.cfi_def_cfa_offset 64
	leaq	128(%rsp), %rbp
	.seh_setframe	%rbp, 128
	.cfi_def_cfa 6, -64
	.seh_endprologue
	movq	%rcx, -64(%rbp)
	movq	%rdx, -56(%rbp)
.LBB81:
	.loc 14 145 0
	movq	-64(%rbp), %rbx
	movq	-56(%rbp), %rax
	movq	%rax, %rcx
	call	_ZNSt12_Vector_baseISt10unique_ptrI7ExprASTSt14default_deleteIS1_EESaIS4_EE19_M_get_Tp_allocatorEv
	movq	%rax, %rcx
	call	_ZSt4moveIRSaISt10unique_ptrI7ExprASTSt14default_deleteIS1_EEEEONSt16remove_referenceIT_E4typeEOS8_
	movq	%rax, %rdx
	movq	%rbx, %rcx
	call	_ZNSt12_Vector_baseISt10unique_ptrI7ExprASTSt14default_deleteIS1_EESaIS4_EE12_Vector_implC1EOS5_
	.loc 14 146 0
	movq	-64(%rbp), %rax
	movq	-56(%rbp), %rdx
	movq	%rax, %rcx
	call	_ZNSt12_Vector_baseISt10unique_ptrI7ExprASTSt14default_deleteIS1_EESaIS4_EE12_Vector_impl12_M_swap_dataERS7_
.LBE81:
	nop
	addq	$40, %rsp
	popq	%rbx
	.cfi_restore 3
	popq	%rbp
	.cfi_restore 6
	.cfi_def_cfa 7, -24
	ret
	.cfi_endproc
.LFE3585:
	.seh_endproc
	.section	.text$_ZNSt12_Vector_baseISt10unique_ptrI7ExprASTSt14default_deleteIS1_EESaIS4_EED2Ev,"x"
	.linkonce discard
	.align 2
	.globl	_ZNSt12_Vector_baseISt10unique_ptrI7ExprASTSt14default_deleteIS1_EESaIS4_EED2Ev
	.def	_ZNSt12_Vector_baseISt10unique_ptrI7ExprASTSt14default_deleteIS1_EESaIS4_EED2Ev;	.scl	2;	.type	32;	.endef
	.seh_proc	_ZNSt12_Vector_baseISt10unique_ptrI7ExprASTSt14default_deleteIS1_EESaIS4_EED2Ev
_ZNSt12_Vector_baseISt10unique_ptrI7ExprASTSt14default_deleteIS1_EESaIS4_EED2Ev:
.LFB3588:
	.loc 14 161 0
	.cfi_startproc
	.cfi_personality 0x9b,.LDFCM0
	.cfi_lsda 0x1c,.LLSDA3588
	pushq	%rbp
	.seh_pushreg	%rbp
	.cfi_def_cfa_offset 16
	.cfi_offset 6, -16
	movq	%rsp, %rbp
	.seh_setframe	%rbp, 0
	.cfi_def_cfa_register 6
	subq	$32, %rsp
	.seh_stackalloc	32
	.seh_endprologue
	movq	%rcx, 16(%rbp)
.LBB82:
	.loc 14 162 0
	movq	16(%rbp), %rax
	movq	16(%rax), %rax
	.loc 14 163 0
	movq	%rax, %rdx
	movq	16(%rbp), %rax
	movq	(%rax), %rax
	subq	%rax, %rdx
	movq	%rdx, %rax
	sarq	$3, %rax
	.loc 14 162 0
	movq	%rax, %rdx
	movq	16(%rbp), %rax
	movq	(%rax), %rax
	movq	%rdx, %r8
	movq	%rax, %rdx
	movq	16(%rbp), %rcx
	call	_ZNSt12_Vector_baseISt10unique_ptrI7ExprASTSt14default_deleteIS1_EESaIS4_EE13_M_deallocateEPS4_y
	.loc 14 163 0
	movq	16(%rbp), %rax
	movq	%rax, %rcx
	call	_ZNSt12_Vector_baseISt10unique_ptrI7ExprASTSt14default_deleteIS1_EESaIS4_EE12_Vector_implD1Ev
.LBE82:
	nop
	addq	$32, %rsp
	popq	%rbp
	.cfi_restore 6
	.cfi_def_cfa 7, 8
	ret
	.cfi_endproc
.LFE3588:
	.seh_handler	__gxx_personality_seh0, @unwind, @except
	.seh_handlerdata
.LLSDA3588:
	.byte	0xff
	.byte	0xff
	.byte	0x1
	.uleb128 .LLSDACSE3588-.LLSDACSB3588
.LLSDACSB3588:
.LLSDACSE3588:
	.section	.text$_ZNSt12_Vector_baseISt10unique_ptrI7ExprASTSt14default_deleteIS1_EESaIS4_EED2Ev,"x"
	.linkonce discard
	.seh_endproc
	.section	.text$_ZNSt12_Vector_baseISt10unique_ptrI7ExprASTSt14default_deleteIS1_EESaIS4_EE19_M_get_Tp_allocatorEv,"x"
	.linkonce discard
	.align 2
	.globl	_ZNSt12_Vector_baseISt10unique_ptrI7ExprASTSt14default_deleteIS1_EESaIS4_EE19_M_get_Tp_allocatorEv
	.def	_ZNSt12_Vector_baseISt10unique_ptrI7ExprASTSt14default_deleteIS1_EESaIS4_EE19_M_get_Tp_allocatorEv;	.scl	2;	.type	32;	.endef
	.seh_proc	_ZNSt12_Vector_baseISt10unique_ptrI7ExprASTSt14default_deleteIS1_EESaIS4_EE19_M_get_Tp_allocatorEv
_ZNSt12_Vector_baseISt10unique_ptrI7ExprASTSt14default_deleteIS1_EESaIS4_EE19_M_get_Tp_allocatorEv:
.LFB3590:
	.loc 14 115 0
	.cfi_startproc
	pushq	%rbp
	.seh_pushreg	%rbp
	.cfi_def_cfa_offset 16
	.cfi_offset 6, -16
	movq	%rsp, %rbp
	.seh_setframe	%rbp, 0
	.cfi_def_cfa_register 6
	.seh_endprologue
	movq	%rcx, 16(%rbp)
	.loc 14 116 0
	movq	16(%rbp), %rax
	popq	%rbp
	.cfi_restore 6
	.cfi_def_cfa 7, 8
	ret
	.cfi_endproc
.LFE3590:
	.seh_endproc
	.section	.text$_ZSt8_DestroyIPSt10unique_ptrI7ExprASTSt14default_deleteIS1_EES4_EvT_S6_RSaIT0_E,"x"
	.linkonce discard
	.globl	_ZSt8_DestroyIPSt10unique_ptrI7ExprASTSt14default_deleteIS1_EES4_EvT_S6_RSaIT0_E
	.def	_ZSt8_DestroyIPSt10unique_ptrI7ExprASTSt14default_deleteIS1_EES4_EvT_S6_RSaIT0_E;	.scl	2;	.type	32;	.endef
	.seh_proc	_ZSt8_DestroyIPSt10unique_ptrI7ExprASTSt14default_deleteIS1_EES4_EvT_S6_RSaIT0_E
_ZSt8_DestroyIPSt10unique_ptrI7ExprASTSt14default_deleteIS1_EES4_EvT_S6_RSaIT0_E:
.LFB3591:
	.file 17 "E:/mingw64/lib/gcc/x86_64-w64-mingw32/7.2.0/include/c++/bits/stl_construct.h"
	.loc 17 203 0
	.cfi_startproc
	pushq	%rbp
	.seh_pushreg	%rbp
	.cfi_def_cfa_offset 16
	.cfi_offset 6, -16
	movq	%rsp, %rbp
	.seh_setframe	%rbp, 0
	.cfi_def_cfa_register 6
	subq	$32, %rsp
	.seh_stackalloc	32
	.seh_endprologue
	movq	%rcx, 16(%rbp)
	movq	%rdx, 24(%rbp)
	movq	%r8, 32(%rbp)
	.loc 17 206 0
	movq	24(%rbp), %rax
	movq	%rax, %rdx
	movq	16(%rbp), %rcx
	call	_ZSt8_DestroyIPSt10unique_ptrI7ExprASTSt14default_deleteIS1_EEEvT_S6_
	.loc 17 207 0
	nop
	addq	$32, %rsp
	popq	%rbp
	.cfi_restore 6
	.cfi_def_cfa 7, 8
	ret
	.cfi_endproc
.LFE3591:
	.seh_endproc
	.section	.text$_ZNSt12_Vector_baseINSt7__cxx1112basic_stringIcSt11char_traitsIcESaIcEEESaIS5_EE12_Vector_implD1Ev,"x"
	.linkonce discard
	.align 2
	.globl	_ZNSt12_Vector_baseINSt7__cxx1112basic_stringIcSt11char_traitsIcESaIcEEESaIS5_EE12_Vector_implD1Ev
	.def	_ZNSt12_Vector_baseINSt7__cxx1112basic_stringIcSt11char_traitsIcESaIcEEESaIS5_EE12_Vector_implD1Ev;	.scl	2;	.type	32;	.endef
	.seh_proc	_ZNSt12_Vector_baseINSt7__cxx1112basic_stringIcSt11char_traitsIcESaIcEEESaIS5_EE12_Vector_implD1Ev
_ZNSt12_Vector_baseINSt7__cxx1112basic_stringIcSt11char_traitsIcESaIcEEESaIS5_EE12_Vector_implD1Ev:
.LFB3595:
	.loc 14 81 0
	.cfi_startproc
	pushq	%rbp
	.seh_pushreg	%rbp
	.cfi_def_cfa_offset 16
	.cfi_offset 6, -16
	movq	%rsp, %rbp
	.seh_setframe	%rbp, 0
	.cfi_def_cfa_register 6
	subq	$32, %rsp
	.seh_stackalloc	32
	.seh_endprologue
	movq	%rcx, 16(%rbp)
.LBB83:
	.loc 14 81 0
	movq	16(%rbp), %rcx
	call	_ZNSaINSt7__cxx1112basic_stringIcSt11char_traitsIcESaIcEEEED2Ev
.LBE83:
	nop
	addq	$32, %rsp
	popq	%rbp
	.cfi_restore 6
	.cfi_def_cfa 7, 8
	ret
	.cfi_endproc
.LFE3595:
	.seh_endproc
	.section	.text$_ZNSt12_Vector_baseINSt7__cxx1112basic_stringIcSt11char_traitsIcESaIcEEESaIS5_EEC2EOS7_,"x"
	.linkonce discard
	.align 2
	.globl	_ZNSt12_Vector_baseINSt7__cxx1112basic_stringIcSt11char_traitsIcESaIcEEESaIS5_EEC2EOS7_
	.def	_ZNSt12_Vector_baseINSt7__cxx1112basic_stringIcSt11char_traitsIcESaIcEEESaIS5_EEC2EOS7_;	.scl	2;	.type	32;	.endef
	.seh_proc	_ZNSt12_Vector_baseINSt7__cxx1112basic_stringIcSt11char_traitsIcESaIcEEESaIS5_EEC2EOS7_
_ZNSt12_Vector_baseINSt7__cxx1112basic_stringIcSt11char_traitsIcESaIcEEESaIS5_EEC2EOS7_:
.LFB3596:
	.loc 14 144 0
	.cfi_startproc
	pushq	%rbp
	.seh_pushreg	%rbp
	.cfi_def_cfa_offset 16
	.cfi_offset 6, -16
	pushq	%rbx
	.seh_pushreg	%rbx
	.cfi_def_cfa_offset 24
	.cfi_offset 3, -24
	subq	$40, %rsp
	.seh_stackalloc	40
	.cfi_def_cfa_offset 64
	leaq	128(%rsp), %rbp
	.seh_setframe	%rbp, 128
	.cfi_def_cfa 6, -64
	.seh_endprologue
	movq	%rcx, -64(%rbp)
	movq	%rdx, -56(%rbp)
.LBB84:
	.loc 14 145 0
	movq	-64(%rbp), %rbx
	movq	-56(%rbp), %rax
	movq	%rax, %rcx
	call	_ZNSt12_Vector_baseINSt7__cxx1112basic_stringIcSt11char_traitsIcESaIcEEESaIS5_EE19_M_get_Tp_allocatorEv
	movq	%rax, %rcx
	call	_ZSt4moveIRSaINSt7__cxx1112basic_stringIcSt11char_traitsIcESaIcEEEEEONSt16remove_referenceIT_E4typeEOS9_
	movq	%rax, %rdx
	movq	%rbx, %rcx
	call	_ZNSt12_Vector_baseINSt7__cxx1112basic_stringIcSt11char_traitsIcESaIcEEESaIS5_EE12_Vector_implC1EOS6_
	.loc 14 146 0
	movq	-64(%rbp), %rax
	movq	-56(%rbp), %rdx
	movq	%rax, %rcx
	call	_ZNSt12_Vector_baseINSt7__cxx1112basic_stringIcSt11char_traitsIcESaIcEEESaIS5_EE12_Vector_impl12_M_swap_dataERS8_
.LBE84:
	nop
	addq	$40, %rsp
	popq	%rbx
	.cfi_restore 3
	popq	%rbp
	.cfi_restore 6
	.cfi_def_cfa 7, -24
	ret
	.cfi_endproc
.LFE3596:
	.seh_endproc
	.section	.text$_ZNSt12_Vector_baseINSt7__cxx1112basic_stringIcSt11char_traitsIcESaIcEEESaIS5_EED2Ev,"x"
	.linkonce discard
	.align 2
	.globl	_ZNSt12_Vector_baseINSt7__cxx1112basic_stringIcSt11char_traitsIcESaIcEEESaIS5_EED2Ev
	.def	_ZNSt12_Vector_baseINSt7__cxx1112basic_stringIcSt11char_traitsIcESaIcEEESaIS5_EED2Ev;	.scl	2;	.type	32;	.endef
	.seh_proc	_ZNSt12_Vector_baseINSt7__cxx1112basic_stringIcSt11char_traitsIcESaIcEEESaIS5_EED2Ev
_ZNSt12_Vector_baseINSt7__cxx1112basic_stringIcSt11char_traitsIcESaIcEEESaIS5_EED2Ev:
.LFB3599:
	.loc 14 161 0
	.cfi_startproc
	.cfi_personality 0x9b,.LDFCM0
	.cfi_lsda 0x1c,.LLSDA3599
	pushq	%rbp
	.seh_pushreg	%rbp
	.cfi_def_cfa_offset 16
	.cfi_offset 6, -16
	movq	%rsp, %rbp
	.seh_setframe	%rbp, 0
	.cfi_def_cfa_register 6
	subq	$32, %rsp
	.seh_stackalloc	32
	.seh_endprologue
	movq	%rcx, 16(%rbp)
.LBB85:
	.loc 14 162 0
	movq	16(%rbp), %rax
	movq	16(%rax), %rax
	.loc 14 163 0
	movq	%rax, %rdx
	movq	16(%rbp), %rax
	movq	(%rax), %rax
	subq	%rax, %rdx
	movq	%rdx, %rax
	sarq	$5, %rax
	.loc 14 162 0
	movq	%rax, %rdx
	movq	16(%rbp), %rax
	movq	(%rax), %rax
	movq	%rdx, %r8
	movq	%rax, %rdx
	movq	16(%rbp), %rcx
	call	_ZNSt12_Vector_baseINSt7__cxx1112basic_stringIcSt11char_traitsIcESaIcEEESaIS5_EE13_M_deallocateEPS5_y
	.loc 14 163 0
	movq	16(%rbp), %rax
	movq	%rax, %rcx
	call	_ZNSt12_Vector_baseINSt7__cxx1112basic_stringIcSt11char_traitsIcESaIcEEESaIS5_EE12_Vector_implD1Ev
.LBE85:
	nop
	addq	$32, %rsp
	popq	%rbp
	.cfi_restore 6
	.cfi_def_cfa 7, 8
	ret
	.cfi_endproc
.LFE3599:
	.seh_handler	__gxx_personality_seh0, @unwind, @except
	.seh_handlerdata
.LLSDA3599:
	.byte	0xff
	.byte	0xff
	.byte	0x1
	.uleb128 .LLSDACSE3599-.LLSDACSB3599
.LLSDACSB3599:
.LLSDACSE3599:
	.section	.text$_ZNSt12_Vector_baseINSt7__cxx1112basic_stringIcSt11char_traitsIcESaIcEEESaIS5_EED2Ev,"x"
	.linkonce discard
	.seh_endproc
	.section	.text$_ZNSt12_Vector_baseINSt7__cxx1112basic_stringIcSt11char_traitsIcESaIcEEESaIS5_EE19_M_get_Tp_allocatorEv,"x"
	.linkonce discard
	.align 2
	.globl	_ZNSt12_Vector_baseINSt7__cxx1112basic_stringIcSt11char_traitsIcESaIcEEESaIS5_EE19_M_get_Tp_allocatorEv
	.def	_ZNSt12_Vector_baseINSt7__cxx1112basic_stringIcSt11char_traitsIcESaIcEEESaIS5_EE19_M_get_Tp_allocatorEv;	.scl	2;	.type	32;	.endef
	.seh_proc	_ZNSt12_Vector_baseINSt7__cxx1112basic_stringIcSt11char_traitsIcESaIcEEESaIS5_EE19_M_get_Tp_allocatorEv
_ZNSt12_Vector_baseINSt7__cxx1112basic_stringIcSt11char_traitsIcESaIcEEESaIS5_EE19_M_get_Tp_allocatorEv:
.LFB3601:
	.loc 14 115 0
	.cfi_startproc
	pushq	%rbp
	.seh_pushreg	%rbp
	.cfi_def_cfa_offset 16
	.cfi_offset 6, -16
	movq	%rsp, %rbp
	.seh_setframe	%rbp, 0
	.cfi_def_cfa_register 6
	.seh_endprologue
	movq	%rcx, 16(%rbp)
	.loc 14 116 0
	movq	16(%rbp), %rax
	popq	%rbp
	.cfi_restore 6
	.cfi_def_cfa 7, 8
	ret
	.cfi_endproc
.LFE3601:
	.seh_endproc
	.section	.text$_ZSt8_DestroyIPNSt7__cxx1112basic_stringIcSt11char_traitsIcESaIcEEES5_EvT_S7_RSaIT0_E,"x"
	.linkonce discard
	.globl	_ZSt8_DestroyIPNSt7__cxx1112basic_stringIcSt11char_traitsIcESaIcEEES5_EvT_S7_RSaIT0_E
	.def	_ZSt8_DestroyIPNSt7__cxx1112basic_stringIcSt11char_traitsIcESaIcEEES5_EvT_S7_RSaIT0_E;	.scl	2;	.type	32;	.endef
	.seh_proc	_ZSt8_DestroyIPNSt7__cxx1112basic_stringIcSt11char_traitsIcESaIcEEES5_EvT_S7_RSaIT0_E
_ZSt8_DestroyIPNSt7__cxx1112basic_stringIcSt11char_traitsIcESaIcEEES5_EvT_S7_RSaIT0_E:
.LFB3602:
	.loc 17 203 0
	.cfi_startproc
	pushq	%rbp
	.seh_pushreg	%rbp
	.cfi_def_cfa_offset 16
	.cfi_offset 6, -16
	movq	%rsp, %rbp
	.seh_setframe	%rbp, 0
	.cfi_def_cfa_register 6
	subq	$32, %rsp
	.seh_stackalloc	32
	.seh_endprologue
	movq	%rcx, 16(%rbp)
	movq	%rdx, 24(%rbp)
	movq	%r8, 32(%rbp)
	.loc 17 206 0
	movq	24(%rbp), %rax
	movq	%rax, %rdx
	movq	16(%rbp), %rcx
	call	_ZSt8_DestroyIPNSt7__cxx1112basic_stringIcSt11char_traitsIcESaIcEEEEvT_S7_
	.loc 17 207 0
	nop
	addq	$32, %rsp
	popq	%rbp
	.cfi_restore 6
	.cfi_def_cfa 7, 8
	ret
	.cfi_endproc
.LFE3602:
	.seh_endproc
	.section	.text$_ZNSt10unique_ptrI12PrototypeASTSt14default_deleteIS0_EE7releaseEv,"x"
	.linkonce discard
	.align 2
	.globl	_ZNSt10unique_ptrI12PrototypeASTSt14default_deleteIS0_EE7releaseEv
	.def	_ZNSt10unique_ptrI12PrototypeASTSt14default_deleteIS0_EE7releaseEv;	.scl	2;	.type	32;	.endef
	.seh_proc	_ZNSt10unique_ptrI12PrototypeASTSt14default_deleteIS0_EE7releaseEv
_ZNSt10unique_ptrI12PrototypeASTSt14default_deleteIS0_EE7releaseEv:
.LFB3603:
	.loc 13 357 0
	.cfi_startproc
	pushq	%rbp
	.seh_pushreg	%rbp
	.cfi_def_cfa_offset 16
	.cfi_offset 6, -16
	movq	%rsp, %rbp
	.seh_setframe	%rbp, 0
	.cfi_def_cfa_register 6
	subq	$48, %rsp
	.seh_stackalloc	48
	.seh_endprologue
	movq	%rcx, 16(%rbp)
	.loc 13 359 0
	movq	16(%rbp), %rcx
	call	_ZNKSt10unique_ptrI12PrototypeASTSt14default_deleteIS0_EE3getEv
	movq	%rax, -8(%rbp)
	.loc 13 360 0
	movq	16(%rbp), %rax
	movq	%rax, %rcx
	call	_ZNSt15__uniq_ptr_implI12PrototypeASTSt14default_deleteIS0_EE6_M_ptrEv
	movq	$0, (%rax)
	.loc 13 361 0
	movq	-8(%rbp), %rax
	.loc 13 362 0
	addq	$48, %rsp
	popq	%rbp
	.cfi_restore 6
	.cfi_def_cfa 7, 8
	ret
	.cfi_endproc
.LFE3603:
	.seh_endproc
	.section	.text$_ZNSt10unique_ptrI12PrototypeASTSt14default_deleteIS0_EE11get_deleterEv,"x"
	.linkonce discard
	.align 2
	.globl	_ZNSt10unique_ptrI12PrototypeASTSt14default_deleteIS0_EE11get_deleterEv
	.def	_ZNSt10unique_ptrI12PrototypeASTSt14default_deleteIS0_EE11get_deleterEv;	.scl	2;	.type	32;	.endef
	.seh_proc	_ZNSt10unique_ptrI12PrototypeASTSt14default_deleteIS0_EE11get_deleterEv
_ZNSt10unique_ptrI12PrototypeASTSt14default_deleteIS0_EE11get_deleterEv:
.LFB3604:
	.loc 13 341 0
	.cfi_startproc
	pushq	%rbp
	.seh_pushreg	%rbp
	.cfi_def_cfa_offset 16
	.cfi_offset 6, -16
	movq	%rsp, %rbp
	.seh_setframe	%rbp, 0
	.cfi_def_cfa_register 6
	subq	$32, %rsp
	.seh_stackalloc	32
	.seh_endprologue
	movq	%rcx, 16(%rbp)
	.loc 13 342 0
	movq	16(%rbp), %rax
	movq	%rax, %rcx
	call	_ZNSt15__uniq_ptr_implI12PrototypeASTSt14default_deleteIS0_EE10_M_deleterEv
	addq	$32, %rsp
	popq	%rbp
	.cfi_restore 6
	.cfi_def_cfa 7, 8
	ret
	.cfi_endproc
.LFE3604:
	.seh_endproc
	.section	.text$_ZSt7forwardISt14default_deleteI12PrototypeASTEEOT_RNSt16remove_referenceIS3_E4typeE,"x"
	.linkonce discard
	.globl	_ZSt7forwardISt14default_deleteI12PrototypeASTEEOT_RNSt16remove_referenceIS3_E4typeE
	.def	_ZSt7forwardISt14default_deleteI12PrototypeASTEEOT_RNSt16remove_referenceIS3_E4typeE;	.scl	2;	.type	32;	.endef
	.seh_proc	_ZSt7forwardISt14default_deleteI12PrototypeASTEEOT_RNSt16remove_referenceIS3_E4typeE
_ZSt7forwardISt14default_deleteI12PrototypeASTEEOT_RNSt16remove_referenceIS3_E4typeE:
.LFB3605:
	.loc 12 73 0
	.cfi_startproc
	pushq	%rbp
	.seh_pushreg	%rbp
	.cfi_def_cfa_offset 16
	.cfi_offset 6, -16
	movq	%rsp, %rbp
	.seh_setframe	%rbp, 0
	.cfi_def_cfa_register 6
	.seh_endprologue
	movq	%rcx, 16(%rbp)
	.loc 12 74 0
	movq	16(%rbp), %rax
	popq	%rbp
	.cfi_restore 6
	.cfi_def_cfa 7, 8
	ret
	.cfi_endproc
.LFE3605:
	.seh_endproc
	.section	.text$_ZNSt15__uniq_ptr_implI12PrototypeASTSt14default_deleteIS0_EEC1IS2_EEPS0_OT_,"x"
	.linkonce discard
	.align 2
	.globl	_ZNSt15__uniq_ptr_implI12PrototypeASTSt14default_deleteIS0_EEC1IS2_EEPS0_OT_
	.def	_ZNSt15__uniq_ptr_implI12PrototypeASTSt14default_deleteIS0_EEC1IS2_EEPS0_OT_;	.scl	2;	.type	32;	.endef
	.seh_proc	_ZNSt15__uniq_ptr_implI12PrototypeASTSt14default_deleteIS0_EEC1IS2_EEPS0_OT_
_ZNSt15__uniq_ptr_implI12PrototypeASTSt14default_deleteIS0_EEC1IS2_EEPS0_OT_:
.LFB3610:
	.loc 13 143 0
	.cfi_startproc
	pushq	%rbp
	.seh_pushreg	%rbp
	.cfi_def_cfa_offset 16
	.cfi_offset 6, -16
	pushq	%rbx
	.seh_pushreg	%rbx
	.cfi_def_cfa_offset 24
	.cfi_offset 3, -24
	subq	$40, %rsp
	.seh_stackalloc	40
	.cfi_def_cfa_offset 64
	leaq	128(%rsp), %rbp
	.seh_setframe	%rbp, 128
	.cfi_def_cfa 6, -64
	.seh_endprologue
	movq	%rcx, -64(%rbp)
	movq	%rdx, -56(%rbp)
	movq	%r8, -48(%rbp)
.LBB86:
	.loc 13 144 0
	movq	-64(%rbp), %rbx
	movq	-48(%rbp), %rax
	movq	%rax, %rcx
	call	_ZSt7forwardISt14default_deleteI12PrototypeASTEEOT_RNSt16remove_referenceIS3_E4typeE
	movq	%rax, %rdx
	leaq	-56(%rbp), %rax
	movq	%rdx, %r8
	movq	%rax, %rdx
	movq	%rbx, %rcx
	call	_ZNSt5tupleIJP12PrototypeASTSt14default_deleteIS0_EEEC1IRS1_S3_Lb1EEEOT_OT0_
.LBE86:
	nop
	addq	$40, %rsp
	popq	%rbx
	.cfi_restore 3
	popq	%rbp
	.cfi_restore 6
	.cfi_def_cfa 7, -24
	ret
	.cfi_endproc
.LFE3610:
	.seh_endproc
	.section	.text$_ZNSt15__uniq_ptr_implI12PrototypeASTSt14default_deleteIS0_EE6_M_ptrEv,"x"
	.linkonce discard
	.align 2
	.globl	_ZNSt15__uniq_ptr_implI12PrototypeASTSt14default_deleteIS0_EE6_M_ptrEv
	.def	_ZNSt15__uniq_ptr_implI12PrototypeASTSt14default_deleteIS0_EE6_M_ptrEv;	.scl	2;	.type	32;	.endef
	.seh_proc	_ZNSt15__uniq_ptr_implI12PrototypeASTSt14default_deleteIS0_EE6_M_ptrEv
_ZNSt15__uniq_ptr_implI12PrototypeASTSt14default_deleteIS0_EE6_M_ptrEv:
.LFB3611:
	.loc 13 146 0
	.cfi_startproc
	pushq	%rbp
	.seh_pushreg	%rbp
	.cfi_def_cfa_offset 16
	.cfi_offset 6, -16
	movq	%rsp, %rbp
	.seh_setframe	%rbp, 0
	.cfi_def_cfa_register 6
	subq	$32, %rsp
	.seh_stackalloc	32
	.seh_endprologue
	movq	%rcx, 16(%rbp)
	.loc 13 146 0
	movq	16(%rbp), %rax
	movq	%rax, %rcx
	call	_ZSt3getILy0EJP12PrototypeASTSt14default_deleteIS0_EEERNSt13tuple_elementIXT_ESt5tupleIJDpT0_EEE4typeERS8_
	addq	$32, %rsp
	popq	%rbp
	.cfi_restore 6
	.cfi_def_cfa 7, 8
	ret
	.cfi_endproc
.LFE3611:
	.seh_endproc
	.section	.text$_ZN12PrototypeASTD1Ev,"x"
	.linkonce discard
	.align 2
	.globl	_ZN12PrototypeASTD1Ev
	.def	_ZN12PrototypeASTD1Ev;	.scl	2;	.type	32;	.endef
	.seh_proc	_ZN12PrototypeASTD1Ev
_ZN12PrototypeASTD1Ev:
.LFB3615:
	.loc 5 60 0
	.cfi_startproc
	pushq	%rbp
	.seh_pushreg	%rbp
	.cfi_def_cfa_offset 16
	.cfi_offset 6, -16
	movq	%rsp, %rbp
	.seh_setframe	%rbp, 0
	.cfi_def_cfa_register 6
	subq	$32, %rsp
	.seh_stackalloc	32
	.seh_endprologue
	movq	%rcx, 16(%rbp)
.LBB87:
	.loc 5 60 0
	movq	16(%rbp), %rax
	addq	$32, %rax
	movq	%rax, %rcx
	call	_ZNSt6vectorINSt7__cxx1112basic_stringIcSt11char_traitsIcESaIcEEESaIS5_EED1Ev
	movq	16(%rbp), %rax
	movq	%rax, %rcx
	call	_ZNSt7__cxx1112basic_stringIcSt11char_traitsIcESaIcEED1Ev
.LBE87:
	nop
	addq	$32, %rsp
	popq	%rbp
	.cfi_restore 6
	.cfi_def_cfa 7, 8
	ret
	.cfi_endproc
.LFE3615:
	.seh_endproc
	.section	.text$_ZNKSt14default_deleteI12PrototypeASTEclEPS0_,"x"
	.linkonce discard
	.align 2
	.globl	_ZNKSt14default_deleteI12PrototypeASTEclEPS0_
	.def	_ZNKSt14default_deleteI12PrototypeASTEclEPS0_;	.scl	2;	.type	32;	.endef
	.seh_proc	_ZNKSt14default_deleteI12PrototypeASTEclEPS0_
_ZNKSt14default_deleteI12PrototypeASTEclEPS0_:
.LFB3612:
	.loc 13 72 0
	.cfi_startproc
	pushq	%rbp
	.seh_pushreg	%rbp
	.cfi_def_cfa_offset 16
	.cfi_offset 6, -16
	pushq	%rbx
	.seh_pushreg	%rbx
	.cfi_def_cfa_offset 24
	.cfi_offset 3, -24
	subq	$40, %rsp
	.seh_stackalloc	40
	.cfi_def_cfa_offset 64
	leaq	128(%rsp), %rbp
	.seh_setframe	%rbp, 128
	.cfi_def_cfa 6, -64
	.seh_endprologue
	movq	%rcx, -64(%rbp)
	movq	%rdx, -56(%rbp)
	.loc 13 78 0
	movq	-56(%rbp), %rbx
	testq	%rbx, %rbx
	je	.L352
	.loc 13 78 0 is_stmt 0 discriminator 1
	movq	%rbx, %rcx
	call	_ZN12PrototypeASTD1Ev
	movl	$56, %edx
	movq	%rbx, %rcx
	call	_ZdlPvy
.L352:
	.loc 13 79 0 is_stmt 1
	nop
	addq	$40, %rsp
	popq	%rbx
	.cfi_restore 3
	popq	%rbp
	.cfi_restore 6
	.cfi_def_cfa 7, -24
	ret
	.cfi_endproc
.LFE3612:
	.seh_endproc
	.section	.text$_ZNSt11_Tuple_implILy0EJP7ExprASTSt14default_deleteIS0_EEEC2Ev,"x"
	.linkonce discard
	.align 2
	.globl	_ZNSt11_Tuple_implILy0EJP7ExprASTSt14default_deleteIS0_EEEC2Ev
	.def	_ZNSt11_Tuple_implILy0EJP7ExprASTSt14default_deleteIS0_EEEC2Ev;	.scl	2;	.type	32;	.endef
	.seh_proc	_ZNSt11_Tuple_implILy0EJP7ExprASTSt14default_deleteIS0_EEEC2Ev
_ZNSt11_Tuple_implILy0EJP7ExprASTSt14default_deleteIS0_EEEC2Ev:
.LFB3624:
	.loc 15 206 0
	.cfi_startproc
	pushq	%rbp
	.seh_pushreg	%rbp
	.cfi_def_cfa_offset 16
	.cfi_offset 6, -16
	movq	%rsp, %rbp
	.seh_setframe	%rbp, 0
	.cfi_def_cfa_register 6
	subq	$32, %rsp
	.seh_stackalloc	32
	.seh_endprologue
	movq	%rcx, 16(%rbp)
.LBB88:
	.loc 15 207 0
	movq	16(%rbp), %rcx
	call	_ZNSt11_Tuple_implILy1EJSt14default_deleteI7ExprASTEEEC2Ev
	movq	16(%rbp), %rax
	movq	%rax, %rcx
	call	_ZNSt10_Head_baseILy0EP7ExprASTLb0EEC2Ev
.LBE88:
	nop
	addq	$32, %rsp
	popq	%rbp
	.cfi_restore 6
	.cfi_def_cfa 7, 8
	ret
	.cfi_endproc
.LFE3624:
	.seh_endproc
	.section	.text$_ZNSt11_Tuple_implILy0EJP12PrototypeASTSt14default_deleteIS0_EEEC2Ev,"x"
	.linkonce discard
	.align 2
	.globl	_ZNSt11_Tuple_implILy0EJP12PrototypeASTSt14default_deleteIS0_EEEC2Ev
	.def	_ZNSt11_Tuple_implILy0EJP12PrototypeASTSt14default_deleteIS0_EEEC2Ev;	.scl	2;	.type	32;	.endef
	.seh_proc	_ZNSt11_Tuple_implILy0EJP12PrototypeASTSt14default_deleteIS0_EEEC2Ev
_ZNSt11_Tuple_implILy0EJP12PrototypeASTSt14default_deleteIS0_EEEC2Ev:
.LFB3627:
	.loc 15 206 0
	.cfi_startproc
	pushq	%rbp
	.seh_pushreg	%rbp
	.cfi_def_cfa_offset 16
	.cfi_offset 6, -16
	movq	%rsp, %rbp
	.seh_setframe	%rbp, 0
	.cfi_def_cfa_register 6
	subq	$32, %rsp
	.seh_stackalloc	32
	.seh_endprologue
	movq	%rcx, 16(%rbp)
.LBB89:
	.loc 15 207 0
	movq	16(%rbp), %rcx
	call	_ZNSt11_Tuple_implILy1EJSt14default_deleteI12PrototypeASTEEEC2Ev
	movq	16(%rbp), %rax
	movq	%rax, %rcx
	call	_ZNSt10_Head_baseILy0EP12PrototypeASTLb0EEC2Ev
.LBE89:
	nop
	addq	$32, %rsp
	popq	%rbp
	.cfi_restore 6
	.cfi_def_cfa 7, 8
	ret
	.cfi_endproc
.LFE3627:
	.seh_endproc
	.section	.text$_ZSt7forwardIRdEOT_RNSt16remove_referenceIS1_E4typeE,"x"
	.linkonce discard
	.globl	_ZSt7forwardIRdEOT_RNSt16remove_referenceIS1_E4typeE
	.def	_ZSt7forwardIRdEOT_RNSt16remove_referenceIS1_E4typeE;	.scl	2;	.type	32;	.endef
	.seh_proc	_ZSt7forwardIRdEOT_RNSt16remove_referenceIS1_E4typeE
_ZSt7forwardIRdEOT_RNSt16remove_referenceIS1_E4typeE:
.LFB3629:
	.loc 12 73 0
	.cfi_startproc
	pushq	%rbp
	.seh_pushreg	%rbp
	.cfi_def_cfa_offset 16
	.cfi_offset 6, -16
	movq	%rsp, %rbp
	.seh_setframe	%rbp, 0
	.cfi_def_cfa_register 6
	.seh_endprologue
	movq	%rcx, 16(%rbp)
	.loc 12 74 0
	movq	16(%rbp), %rax
	popq	%rbp
	.cfi_restore 6
	.cfi_def_cfa 7, 8
	ret
	.cfi_endproc
.LFE3629:
	.seh_endproc
	.section	.text$_ZNSt10unique_ptrI13NumberExprASTSt14default_deleteIS0_EEC1IS2_vEEPS0_,"x"
	.linkonce discard
	.align 2
	.globl	_ZNSt10unique_ptrI13NumberExprASTSt14default_deleteIS0_EEC1IS2_vEEPS0_
	.def	_ZNSt10unique_ptrI13NumberExprASTSt14default_deleteIS0_EEC1IS2_vEEPS0_;	.scl	2;	.type	32;	.endef
	.seh_proc	_ZNSt10unique_ptrI13NumberExprASTSt14default_deleteIS0_EEC1IS2_vEEPS0_
_ZNSt10unique_ptrI13NumberExprASTSt14default_deleteIS0_EEC1IS2_vEEPS0_:
.LFB3632:
	.loc 13 201 0
	.cfi_startproc
	.cfi_personality 0x9b,.LDFCM0
	.cfi_lsda 0x1c,.LLSDA3632
	pushq	%rbp
	.seh_pushreg	%rbp
	.cfi_def_cfa_offset 16
	.cfi_offset 6, -16
	movq	%rsp, %rbp
	.seh_setframe	%rbp, 0
	.cfi_def_cfa_register 6
	subq	$32, %rsp
	.seh_stackalloc	32
	.seh_endprologue
	movq	%rcx, 16(%rbp)
	movq	%rdx, 24(%rbp)
.LBB90:
	.loc 13 202 0
	movq	16(%rbp), %rax
	movq	24(%rbp), %rdx
	movq	%rax, %rcx
	call	_ZNSt15__uniq_ptr_implI13NumberExprASTSt14default_deleteIS0_EEC1EPS0_
.LBE90:
	.loc 13 203 0
	nop
	addq	$32, %rsp
	popq	%rbp
	.cfi_restore 6
	.cfi_def_cfa 7, 8
	ret
	.cfi_endproc
.LFE3632:
	.seh_handler	__gxx_personality_seh0, @unwind, @except
	.seh_handlerdata
.LLSDA3632:
	.byte	0xff
	.byte	0xff
	.byte	0x1
	.uleb128 .LLSDACSE3632-.LLSDACSB3632
.LLSDACSB3632:
.LLSDACSE3632:
	.section	.text$_ZNSt10unique_ptrI13NumberExprASTSt14default_deleteIS0_EEC1IS2_vEEPS0_,"x"
	.linkonce discard
	.seh_endproc
	.section	.text$_ZNSt15__uniq_ptr_implI13NumberExprASTSt14default_deleteIS0_EE6_M_ptrEv,"x"
	.linkonce discard
	.align 2
	.globl	_ZNSt15__uniq_ptr_implI13NumberExprASTSt14default_deleteIS0_EE6_M_ptrEv
	.def	_ZNSt15__uniq_ptr_implI13NumberExprASTSt14default_deleteIS0_EE6_M_ptrEv;	.scl	2;	.type	32;	.endef
	.seh_proc	_ZNSt15__uniq_ptr_implI13NumberExprASTSt14default_deleteIS0_EE6_M_ptrEv
_ZNSt15__uniq_ptr_implI13NumberExprASTSt14default_deleteIS0_EE6_M_ptrEv:
.LFB3633:
	.loc 13 146 0
	.cfi_startproc
	pushq	%rbp
	.seh_pushreg	%rbp
	.cfi_def_cfa_offset 16
	.cfi_offset 6, -16
	movq	%rsp, %rbp
	.seh_setframe	%rbp, 0
	.cfi_def_cfa_register 6
	subq	$32, %rsp
	.seh_stackalloc	32
	.seh_endprologue
	movq	%rcx, 16(%rbp)
	.loc 13 146 0
	movq	16(%rbp), %rax
	movq	%rax, %rcx
	call	_ZSt3getILy0EJP13NumberExprASTSt14default_deleteIS0_EEERNSt13tuple_elementIXT_ESt5tupleIJDpT0_EEE4typeERS8_
	addq	$32, %rsp
	popq	%rbp
	.cfi_restore 6
	.cfi_def_cfa 7, 8
	ret
	.cfi_endproc
.LFE3633:
	.seh_endproc
	.section	.text$_ZNSt10unique_ptrI13NumberExprASTSt14default_deleteIS0_EE11get_deleterEv,"x"
	.linkonce discard
	.align 2
	.globl	_ZNSt10unique_ptrI13NumberExprASTSt14default_deleteIS0_EE11get_deleterEv
	.def	_ZNSt10unique_ptrI13NumberExprASTSt14default_deleteIS0_EE11get_deleterEv;	.scl	2;	.type	32;	.endef
	.seh_proc	_ZNSt10unique_ptrI13NumberExprASTSt14default_deleteIS0_EE11get_deleterEv
_ZNSt10unique_ptrI13NumberExprASTSt14default_deleteIS0_EE11get_deleterEv:
.LFB3634:
	.loc 13 341 0
	.cfi_startproc
	pushq	%rbp
	.seh_pushreg	%rbp
	.cfi_def_cfa_offset 16
	.cfi_offset 6, -16
	movq	%rsp, %rbp
	.seh_setframe	%rbp, 0
	.cfi_def_cfa_register 6
	subq	$32, %rsp
	.seh_stackalloc	32
	.seh_endprologue
	movq	%rcx, 16(%rbp)
	.loc 13 342 0
	movq	16(%rbp), %rax
	movq	%rax, %rcx
	call	_ZNSt15__uniq_ptr_implI13NumberExprASTSt14default_deleteIS0_EE10_M_deleterEv
	addq	$32, %rsp
	popq	%rbp
	.cfi_restore 6
	.cfi_def_cfa 7, 8
	ret
	.cfi_endproc
.LFE3634:
	.seh_endproc
	.section	.text$_ZN13NumberExprASTD1Ev,"x"
	.linkonce discard
	.align 2
	.globl	_ZN13NumberExprASTD1Ev
	.def	_ZN13NumberExprASTD1Ev;	.scl	2;	.type	32;	.endef
	.seh_proc	_ZN13NumberExprASTD1Ev
_ZN13NumberExprASTD1Ev:
.LFB3638:
	.loc 5 17 0
	.cfi_startproc
	pushq	%rbp
	.seh_pushreg	%rbp
	.cfi_def_cfa_offset 16
	.cfi_offset 6, -16
	movq	%rsp, %rbp
	.seh_setframe	%rbp, 0
	.cfi_def_cfa_register 6
	subq	$32, %rsp
	.seh_stackalloc	32
	.seh_endprologue
	movq	%rcx, 16(%rbp)
.LBB91:
	.loc 5 17 0
	leaq	16+_ZTV13NumberExprAST(%rip), %rdx
	movq	16(%rbp), %rax
	movq	%rdx, (%rax)
	movq	16(%rbp), %rax
	movq	%rax, %rcx
	call	_ZN7ExprASTD2Ev
.LBE91:
	nop
	addq	$32, %rsp
	popq	%rbp
	.cfi_restore 6
	.cfi_def_cfa 7, 8
	ret
	.cfi_endproc
.LFE3638:
	.seh_endproc
	.section	.text$_ZN13NumberExprASTD0Ev,"x"
	.linkonce discard
	.align 2
	.globl	_ZN13NumberExprASTD0Ev
	.def	_ZN13NumberExprASTD0Ev;	.scl	2;	.type	32;	.endef
	.seh_proc	_ZN13NumberExprASTD0Ev
_ZN13NumberExprASTD0Ev:
.LFB3639:
	.loc 5 17 0
	.cfi_startproc
	pushq	%rbp
	.seh_pushreg	%rbp
	.cfi_def_cfa_offset 16
	.cfi_offset 6, -16
	movq	%rsp, %rbp
	.seh_setframe	%rbp, 0
	.cfi_def_cfa_register 6
	subq	$32, %rsp
	.seh_stackalloc	32
	.seh_endprologue
	movq	%rcx, 16(%rbp)
	.loc 5 17 0
	movq	16(%rbp), %rcx
	call	_ZN13NumberExprASTD1Ev
	movl	$16, %edx
	movq	16(%rbp), %rcx
	call	_ZdlPvy
	nop
	addq	$32, %rsp
	popq	%rbp
	.cfi_restore 6
	.cfi_def_cfa 7, 8
	ret
	.cfi_endproc
.LFE3639:
	.seh_endproc
	.section	.text$_ZNKSt14default_deleteI13NumberExprASTEclEPS0_,"x"
	.linkonce discard
	.align 2
	.globl	_ZNKSt14default_deleteI13NumberExprASTEclEPS0_
	.def	_ZNKSt14default_deleteI13NumberExprASTEclEPS0_;	.scl	2;	.type	32;	.endef
	.seh_proc	_ZNKSt14default_deleteI13NumberExprASTEclEPS0_
_ZNKSt14default_deleteI13NumberExprASTEclEPS0_:
.LFB3635:
	.loc 13 72 0
	.cfi_startproc
	pushq	%rbp
	.seh_pushreg	%rbp
	.cfi_def_cfa_offset 16
	.cfi_offset 6, -16
	movq	%rsp, %rbp
	.seh_setframe	%rbp, 0
	.cfi_def_cfa_register 6
	subq	$32, %rsp
	.seh_stackalloc	32
	.seh_endprologue
	movq	%rcx, 16(%rbp)
	movq	%rdx, 24(%rbp)
	.loc 13 78 0
	cmpq	$0, 24(%rbp)
	je	.L366
	.loc 13 78 0 is_stmt 0 discriminator 1
	movq	24(%rbp), %rax
	movq	(%rax), %rax
	addq	$8, %rax
	movq	(%rax), %rax
	movq	24(%rbp), %rdx
	movq	%rdx, %rcx
	call	*%rax
.LVL11:
.L366:
	.loc 13 79 0 is_stmt 1
	nop
	addq	$32, %rsp
	popq	%rbp
	.cfi_restore 6
	.cfi_def_cfa 7, 8
	ret
	.cfi_endproc
.LFE3635:
	.seh_endproc
	.section	.text$_ZNSt10unique_ptrI13NumberExprASTSt14default_deleteIS0_EE7releaseEv,"x"
	.linkonce discard
	.align 2
	.globl	_ZNSt10unique_ptrI13NumberExprASTSt14default_deleteIS0_EE7releaseEv
	.def	_ZNSt10unique_ptrI13NumberExprASTSt14default_deleteIS0_EE7releaseEv;	.scl	2;	.type	32;	.endef
	.seh_proc	_ZNSt10unique_ptrI13NumberExprASTSt14default_deleteIS0_EE7releaseEv
_ZNSt10unique_ptrI13NumberExprASTSt14default_deleteIS0_EE7releaseEv:
.LFB3640:
	.loc 13 357 0
	.cfi_startproc
	pushq	%rbp
	.seh_pushreg	%rbp
	.cfi_def_cfa_offset 16
	.cfi_offset 6, -16
	movq	%rsp, %rbp
	.seh_setframe	%rbp, 0
	.cfi_def_cfa_register 6
	subq	$48, %rsp
	.seh_stackalloc	48
	.seh_endprologue
	movq	%rcx, 16(%rbp)
	.loc 13 359 0
	movq	16(%rbp), %rcx
	call	_ZNKSt10unique_ptrI13NumberExprASTSt14default_deleteIS0_EE3getEv
	movq	%rax, -8(%rbp)
	.loc 13 360 0
	movq	16(%rbp), %rax
	movq	%rax, %rcx
	call	_ZNSt15__uniq_ptr_implI13NumberExprASTSt14default_deleteIS0_EE6_M_ptrEv
	movq	$0, (%rax)
	.loc 13 361 0
	movq	-8(%rbp), %rax
	.loc 13 362 0
	addq	$48, %rsp
	popq	%rbp
	.cfi_restore 6
	.cfi_def_cfa 7, 8
	ret
	.cfi_endproc
.LFE3640:
	.seh_endproc
	.section	.text$_ZSt7forwardISt14default_deleteI13NumberExprASTEEOT_RNSt16remove_referenceIS3_E4typeE,"x"
	.linkonce discard
	.globl	_ZSt7forwardISt14default_deleteI13NumberExprASTEEOT_RNSt16remove_referenceIS3_E4typeE
	.def	_ZSt7forwardISt14default_deleteI13NumberExprASTEEOT_RNSt16remove_referenceIS3_E4typeE;	.scl	2;	.type	32;	.endef
	.seh_proc	_ZSt7forwardISt14default_deleteI13NumberExprASTEEOT_RNSt16remove_referenceIS3_E4typeE
_ZSt7forwardISt14default_deleteI13NumberExprASTEEOT_RNSt16remove_referenceIS3_E4typeE:
.LFB3641:
	.loc 12 73 0
	.cfi_startproc
	pushq	%rbp
	.seh_pushreg	%rbp
	.cfi_def_cfa_offset 16
	.cfi_offset 6, -16
	movq	%rsp, %rbp
	.seh_setframe	%rbp, 0
	.cfi_def_cfa_register 6
	.seh_endprologue
	movq	%rcx, 16(%rbp)
	.loc 12 74 0
	movq	16(%rbp), %rax
	popq	%rbp
	.cfi_restore 6
	.cfi_def_cfa 7, 8
	ret
	.cfi_endproc
.LFE3641:
	.seh_endproc
	.section	.text$_ZNSt15__uniq_ptr_implI7ExprASTSt14default_deleteIS0_EEC1IS1_I13NumberExprASTEEEPS0_OT_,"x"
	.linkonce discard
	.align 2
	.globl	_ZNSt15__uniq_ptr_implI7ExprASTSt14default_deleteIS0_EEC1IS1_I13NumberExprASTEEEPS0_OT_
	.def	_ZNSt15__uniq_ptr_implI7ExprASTSt14default_deleteIS0_EEC1IS1_I13NumberExprASTEEEPS0_OT_;	.scl	2;	.type	32;	.endef
	.seh_proc	_ZNSt15__uniq_ptr_implI7ExprASTSt14default_deleteIS0_EEC1IS1_I13NumberExprASTEEEPS0_OT_
_ZNSt15__uniq_ptr_implI7ExprASTSt14default_deleteIS0_EEC1IS1_I13NumberExprASTEEEPS0_OT_:
.LFB3651:
	.loc 13 143 0
	.cfi_startproc
	pushq	%rbp
	.seh_pushreg	%rbp
	.cfi_def_cfa_offset 16
	.cfi_offset 6, -16
	pushq	%rbx
	.seh_pushreg	%rbx
	.cfi_def_cfa_offset 24
	.cfi_offset 3, -24
	subq	$40, %rsp
	.seh_stackalloc	40
	.cfi_def_cfa_offset 64
	leaq	128(%rsp), %rbp
	.seh_setframe	%rbp, 128
	.cfi_def_cfa 6, -64
	.seh_endprologue
	movq	%rcx, -64(%rbp)
	movq	%rdx, -56(%rbp)
	movq	%r8, -48(%rbp)
.LBB92:
	.loc 13 144 0
	movq	-64(%rbp), %rbx
	movq	-48(%rbp), %rax
	movq	%rax, %rcx
	call	_ZSt7forwardISt14default_deleteI13NumberExprASTEEOT_RNSt16remove_referenceIS3_E4typeE
	movq	%rax, %rdx
	leaq	-56(%rbp), %rax
	movq	%rdx, %r8
	movq	%rax, %rdx
	movq	%rbx, %rcx
	call	_ZNSt5tupleIJP7ExprASTSt14default_deleteIS0_EEEC1IRS1_S2_I13NumberExprASTELb1EEEOT_OT0_
.LBE92:
	nop
	addq	$40, %rsp
	popq	%rbx
	.cfi_restore 3
	popq	%rbp
	.cfi_restore 6
	.cfi_def_cfa 7, -24
	ret
	.cfi_endproc
.LFE3651:
	.seh_endproc
	.section	.text$_ZNKSt10unique_ptrI7ExprASTSt14default_deleteIS0_EE3getEv,"x"
	.linkonce discard
	.align 2
	.globl	_ZNKSt10unique_ptrI7ExprASTSt14default_deleteIS0_EE3getEv
	.def	_ZNKSt10unique_ptrI7ExprASTSt14default_deleteIS0_EE3getEv;	.scl	2;	.type	32;	.endef
	.seh_proc	_ZNKSt10unique_ptrI7ExprASTSt14default_deleteIS0_EE3getEv
_ZNKSt10unique_ptrI7ExprASTSt14default_deleteIS0_EE3getEv:
.LFB3652:
	.loc 13 336 0
	.cfi_startproc
	pushq	%rbp
	.seh_pushreg	%rbp
	.cfi_def_cfa_offset 16
	.cfi_offset 6, -16
	movq	%rsp, %rbp
	.seh_setframe	%rbp, 0
	.cfi_def_cfa_register 6
	subq	$32, %rsp
	.seh_stackalloc	32
	.seh_endprologue
	movq	%rcx, 16(%rbp)
	.loc 13 337 0
	movq	16(%rbp), %rax
	movq	%rax, %rcx
	call	_ZNKSt15__uniq_ptr_implI7ExprASTSt14default_deleteIS0_EE6_M_ptrEv
	addq	$32, %rsp
	popq	%rbp
	.cfi_restore 6
	.cfi_def_cfa 7, 8
	ret
	.cfi_endproc
.LFE3652:
	.seh_endproc
	.section	.text$_ZSt7forwardIRNSt7__cxx1112basic_stringIcSt11char_traitsIcESaIcEEEEOT_RNSt16remove_referenceIS7_E4typeE,"x"
	.linkonce discard
	.globl	_ZSt7forwardIRNSt7__cxx1112basic_stringIcSt11char_traitsIcESaIcEEEEOT_RNSt16remove_referenceIS7_E4typeE
	.def	_ZSt7forwardIRNSt7__cxx1112basic_stringIcSt11char_traitsIcESaIcEEEEOT_RNSt16remove_referenceIS7_E4typeE;	.scl	2;	.type	32;	.endef
	.seh_proc	_ZSt7forwardIRNSt7__cxx1112basic_stringIcSt11char_traitsIcESaIcEEEEOT_RNSt16remove_referenceIS7_E4typeE
_ZSt7forwardIRNSt7__cxx1112basic_stringIcSt11char_traitsIcESaIcEEEEOT_RNSt16remove_referenceIS7_E4typeE:
.LFB3653:
	.loc 12 73 0
	.cfi_startproc
	pushq	%rbp
	.seh_pushreg	%rbp
	.cfi_def_cfa_offset 16
	.cfi_offset 6, -16
	movq	%rsp, %rbp
	.seh_setframe	%rbp, 0
	.cfi_def_cfa_register 6
	.seh_endprologue
	movq	%rcx, 16(%rbp)
	.loc 12 74 0
	movq	16(%rbp), %rax
	popq	%rbp
	.cfi_restore 6
	.cfi_def_cfa 7, 8
	ret
	.cfi_endproc
.LFE3653:
	.seh_endproc
	.section	.text$_ZNSt10unique_ptrI15VariableExprASTSt14default_deleteIS0_EEC1IS2_vEEPS0_,"x"
	.linkonce discard
	.align 2
	.globl	_ZNSt10unique_ptrI15VariableExprASTSt14default_deleteIS0_EEC1IS2_vEEPS0_
	.def	_ZNSt10unique_ptrI15VariableExprASTSt14default_deleteIS0_EEC1IS2_vEEPS0_;	.scl	2;	.type	32;	.endef
	.seh_proc	_ZNSt10unique_ptrI15VariableExprASTSt14default_deleteIS0_EEC1IS2_vEEPS0_
_ZNSt10unique_ptrI15VariableExprASTSt14default_deleteIS0_EEC1IS2_vEEPS0_:
.LFB3660:
	.loc 13 201 0
	.cfi_startproc
	.cfi_personality 0x9b,.LDFCM0
	.cfi_lsda 0x1c,.LLSDA3660
	pushq	%rbp
	.seh_pushreg	%rbp
	.cfi_def_cfa_offset 16
	.cfi_offset 6, -16
	movq	%rsp, %rbp
	.seh_setframe	%rbp, 0
	.cfi_def_cfa_register 6
	subq	$32, %rsp
	.seh_stackalloc	32
	.seh_endprologue
	movq	%rcx, 16(%rbp)
	movq	%rdx, 24(%rbp)
.LBB93:
	.loc 13 202 0
	movq	16(%rbp), %rax
	movq	24(%rbp), %rdx
	movq	%rax, %rcx
	call	_ZNSt15__uniq_ptr_implI15VariableExprASTSt14default_deleteIS0_EEC1EPS0_
.LBE93:
	.loc 13 203 0
	nop
	addq	$32, %rsp
	popq	%rbp
	.cfi_restore 6
	.cfi_def_cfa 7, 8
	ret
	.cfi_endproc
.LFE3660:
	.seh_handler	__gxx_personality_seh0, @unwind, @except
	.seh_handlerdata
.LLSDA3660:
	.byte	0xff
	.byte	0xff
	.byte	0x1
	.uleb128 .LLSDACSE3660-.LLSDACSB3660
.LLSDACSB3660:
.LLSDACSE3660:
	.section	.text$_ZNSt10unique_ptrI15VariableExprASTSt14default_deleteIS0_EEC1IS2_vEEPS0_,"x"
	.linkonce discard
	.seh_endproc
	.section	.text$_ZNSt15__uniq_ptr_implI15VariableExprASTSt14default_deleteIS0_EE6_M_ptrEv,"x"
	.linkonce discard
	.align 2
	.globl	_ZNSt15__uniq_ptr_implI15VariableExprASTSt14default_deleteIS0_EE6_M_ptrEv
	.def	_ZNSt15__uniq_ptr_implI15VariableExprASTSt14default_deleteIS0_EE6_M_ptrEv;	.scl	2;	.type	32;	.endef
	.seh_proc	_ZNSt15__uniq_ptr_implI15VariableExprASTSt14default_deleteIS0_EE6_M_ptrEv
_ZNSt15__uniq_ptr_implI15VariableExprASTSt14default_deleteIS0_EE6_M_ptrEv:
.LFB3664:
	.loc 13 146 0
	.cfi_startproc
	pushq	%rbp
	.seh_pushreg	%rbp
	.cfi_def_cfa_offset 16
	.cfi_offset 6, -16
	movq	%rsp, %rbp
	.seh_setframe	%rbp, 0
	.cfi_def_cfa_register 6
	subq	$32, %rsp
	.seh_stackalloc	32
	.seh_endprologue
	movq	%rcx, 16(%rbp)
	.loc 13 146 0
	movq	16(%rbp), %rax
	movq	%rax, %rcx
	call	_ZSt3getILy0EJP15VariableExprASTSt14default_deleteIS0_EEERNSt13tuple_elementIXT_ESt5tupleIJDpT0_EEE4typeERS8_
	addq	$32, %rsp
	popq	%rbp
	.cfi_restore 6
	.cfi_def_cfa 7, 8
	ret
	.cfi_endproc
.LFE3664:
	.seh_endproc
	.section	.text$_ZNSt10unique_ptrI15VariableExprASTSt14default_deleteIS0_EE11get_deleterEv,"x"
	.linkonce discard
	.align 2
	.globl	_ZNSt10unique_ptrI15VariableExprASTSt14default_deleteIS0_EE11get_deleterEv
	.def	_ZNSt10unique_ptrI15VariableExprASTSt14default_deleteIS0_EE11get_deleterEv;	.scl	2;	.type	32;	.endef
	.seh_proc	_ZNSt10unique_ptrI15VariableExprASTSt14default_deleteIS0_EE11get_deleterEv
_ZNSt10unique_ptrI15VariableExprASTSt14default_deleteIS0_EE11get_deleterEv:
.LFB3665:
	.loc 13 341 0
	.cfi_startproc
	pushq	%rbp
	.seh_pushreg	%rbp
	.cfi_def_cfa_offset 16
	.cfi_offset 6, -16
	movq	%rsp, %rbp
	.seh_setframe	%rbp, 0
	.cfi_def_cfa_register 6
	subq	$32, %rsp
	.seh_stackalloc	32
	.seh_endprologue
	movq	%rcx, 16(%rbp)
	.loc 13 342 0
	movq	16(%rbp), %rax
	movq	%rax, %rcx
	call	_ZNSt15__uniq_ptr_implI15VariableExprASTSt14default_deleteIS0_EE10_M_deleterEv
	addq	$32, %rsp
	popq	%rbp
	.cfi_restore 6
	.cfi_def_cfa 7, 8
	ret
	.cfi_endproc
.LFE3665:
	.seh_endproc
	.section	.text$_ZN15VariableExprASTD1Ev,"x"
	.linkonce discard
	.align 2
	.globl	_ZN15VariableExprASTD1Ev
	.def	_ZN15VariableExprASTD1Ev;	.scl	2;	.type	32;	.endef
	.seh_proc	_ZN15VariableExprASTD1Ev
_ZN15VariableExprASTD1Ev:
.LFB3669:
	.loc 5 25 0
	.cfi_startproc
	pushq	%rbp
	.seh_pushreg	%rbp
	.cfi_def_cfa_offset 16
	.cfi_offset 6, -16
	movq	%rsp, %rbp
	.seh_setframe	%rbp, 0
	.cfi_def_cfa_register 6
	subq	$32, %rsp
	.seh_stackalloc	32
	.seh_endprologue
	movq	%rcx, 16(%rbp)
.LBB94:
	.loc 5 25 0
	leaq	16+_ZTV15VariableExprAST(%rip), %rdx
	movq	16(%rbp), %rax
	movq	%rdx, (%rax)
	movq	16(%rbp), %rax
	addq	$8, %rax
	movq	%rax, %rcx
	call	_ZNSt7__cxx1112basic_stringIcSt11char_traitsIcESaIcEED1Ev
	movq	16(%rbp), %rax
	movq	%rax, %rcx
	call	_ZN7ExprASTD2Ev
.LBE94:
	nop
	addq	$32, %rsp
	popq	%rbp
	.cfi_restore 6
	.cfi_def_cfa 7, 8
	ret
	.cfi_endproc
.LFE3669:
	.seh_endproc
	.section	.text$_ZN15VariableExprASTD0Ev,"x"
	.linkonce discard
	.align 2
	.globl	_ZN15VariableExprASTD0Ev
	.def	_ZN15VariableExprASTD0Ev;	.scl	2;	.type	32;	.endef
	.seh_proc	_ZN15VariableExprASTD0Ev
_ZN15VariableExprASTD0Ev:
.LFB3670:
	.loc 5 25 0
	.cfi_startproc
	pushq	%rbp
	.seh_pushreg	%rbp
	.cfi_def_cfa_offset 16
	.cfi_offset 6, -16
	movq	%rsp, %rbp
	.seh_setframe	%rbp, 0
	.cfi_def_cfa_register 6
	subq	$32, %rsp
	.seh_stackalloc	32
	.seh_endprologue
	movq	%rcx, 16(%rbp)
	.loc 5 25 0
	movq	16(%rbp), %rcx
	call	_ZN15VariableExprASTD1Ev
	movl	$40, %edx
	movq	16(%rbp), %rcx
	call	_ZdlPvy
	nop
	addq	$32, %rsp
	popq	%rbp
	.cfi_restore 6
	.cfi_def_cfa 7, 8
	ret
	.cfi_endproc
.LFE3670:
	.seh_endproc
	.section	.text$_ZNKSt14default_deleteI15VariableExprASTEclEPS0_,"x"
	.linkonce discard
	.align 2
	.globl	_ZNKSt14default_deleteI15VariableExprASTEclEPS0_
	.def	_ZNKSt14default_deleteI15VariableExprASTEclEPS0_;	.scl	2;	.type	32;	.endef
	.seh_proc	_ZNKSt14default_deleteI15VariableExprASTEclEPS0_
_ZNKSt14default_deleteI15VariableExprASTEclEPS0_:
.LFB3666:
	.loc 13 72 0
	.cfi_startproc
	pushq	%rbp
	.seh_pushreg	%rbp
	.cfi_def_cfa_offset 16
	.cfi_offset 6, -16
	movq	%rsp, %rbp
	.seh_setframe	%rbp, 0
	.cfi_def_cfa_register 6
	subq	$32, %rsp
	.seh_stackalloc	32
	.seh_endprologue
	movq	%rcx, 16(%rbp)
	movq	%rdx, 24(%rbp)
	.loc 13 78 0
	cmpq	$0, 24(%rbp)
	je	.L385
	.loc 13 78 0 is_stmt 0 discriminator 1
	movq	24(%rbp), %rax
	movq	(%rax), %rax
	addq	$8, %rax
	movq	(%rax), %rax
	movq	24(%rbp), %rdx
	movq	%rdx, %rcx
	call	*%rax
.LVL12:
.L385:
	.loc 13 79 0 is_stmt 1
	nop
	addq	$32, %rsp
	popq	%rbp
	.cfi_restore 6
	.cfi_def_cfa 7, 8
	ret
	.cfi_endproc
.LFE3666:
	.seh_endproc
	.section	.text$_ZNSt10unique_ptrI15VariableExprASTSt14default_deleteIS0_EE7releaseEv,"x"
	.linkonce discard
	.align 2
	.globl	_ZNSt10unique_ptrI15VariableExprASTSt14default_deleteIS0_EE7releaseEv
	.def	_ZNSt10unique_ptrI15VariableExprASTSt14default_deleteIS0_EE7releaseEv;	.scl	2;	.type	32;	.endef
	.seh_proc	_ZNSt10unique_ptrI15VariableExprASTSt14default_deleteIS0_EE7releaseEv
_ZNSt10unique_ptrI15VariableExprASTSt14default_deleteIS0_EE7releaseEv:
.LFB3671:
	.loc 13 357 0
	.cfi_startproc
	pushq	%rbp
	.seh_pushreg	%rbp
	.cfi_def_cfa_offset 16
	.cfi_offset 6, -16
	movq	%rsp, %rbp
	.seh_setframe	%rbp, 0
	.cfi_def_cfa_register 6
	subq	$48, %rsp
	.seh_stackalloc	48
	.seh_endprologue
	movq	%rcx, 16(%rbp)
	.loc 13 359 0
	movq	16(%rbp), %rcx
	call	_ZNKSt10unique_ptrI15VariableExprASTSt14default_deleteIS0_EE3getEv
	movq	%rax, -8(%rbp)
	.loc 13 360 0
	movq	16(%rbp), %rax
	movq	%rax, %rcx
	call	_ZNSt15__uniq_ptr_implI15VariableExprASTSt14default_deleteIS0_EE6_M_ptrEv
	movq	$0, (%rax)
	.loc 13 361 0
	movq	-8(%rbp), %rax
	.loc 13 362 0
	addq	$48, %rsp
	popq	%rbp
	.cfi_restore 6
	.cfi_def_cfa 7, 8
	ret
	.cfi_endproc
.LFE3671:
	.seh_endproc
	.section	.text$_ZSt7forwardISt14default_deleteI15VariableExprASTEEOT_RNSt16remove_referenceIS3_E4typeE,"x"
	.linkonce discard
	.globl	_ZSt7forwardISt14default_deleteI15VariableExprASTEEOT_RNSt16remove_referenceIS3_E4typeE
	.def	_ZSt7forwardISt14default_deleteI15VariableExprASTEEOT_RNSt16remove_referenceIS3_E4typeE;	.scl	2;	.type	32;	.endef
	.seh_proc	_ZSt7forwardISt14default_deleteI15VariableExprASTEEOT_RNSt16remove_referenceIS3_E4typeE
_ZSt7forwardISt14default_deleteI15VariableExprASTEEOT_RNSt16remove_referenceIS3_E4typeE:
.LFB3672:
	.loc 12 73 0
	.cfi_startproc
	pushq	%rbp
	.seh_pushreg	%rbp
	.cfi_def_cfa_offset 16
	.cfi_offset 6, -16
	movq	%rsp, %rbp
	.seh_setframe	%rbp, 0
	.cfi_def_cfa_register 6
	.seh_endprologue
	movq	%rcx, 16(%rbp)
	.loc 12 74 0
	movq	16(%rbp), %rax
	popq	%rbp
	.cfi_restore 6
	.cfi_def_cfa 7, 8
	ret
	.cfi_endproc
.LFE3672:
	.seh_endproc
	.section	.text$_ZNSt15__uniq_ptr_implI7ExprASTSt14default_deleteIS0_EEC1IS1_I15VariableExprASTEEEPS0_OT_,"x"
	.linkonce discard
	.align 2
	.globl	_ZNSt15__uniq_ptr_implI7ExprASTSt14default_deleteIS0_EEC1IS1_I15VariableExprASTEEEPS0_OT_
	.def	_ZNSt15__uniq_ptr_implI7ExprASTSt14default_deleteIS0_EEC1IS1_I15VariableExprASTEEEPS0_OT_;	.scl	2;	.type	32;	.endef
	.seh_proc	_ZNSt15__uniq_ptr_implI7ExprASTSt14default_deleteIS0_EEC1IS1_I15VariableExprASTEEEPS0_OT_
_ZNSt15__uniq_ptr_implI7ExprASTSt14default_deleteIS0_EEC1IS1_I15VariableExprASTEEEPS0_OT_:
.LFB3677:
	.loc 13 143 0
	.cfi_startproc
	pushq	%rbp
	.seh_pushreg	%rbp
	.cfi_def_cfa_offset 16
	.cfi_offset 6, -16
	pushq	%rbx
	.seh_pushreg	%rbx
	.cfi_def_cfa_offset 24
	.cfi_offset 3, -24
	subq	$40, %rsp
	.seh_stackalloc	40
	.cfi_def_cfa_offset 64
	leaq	128(%rsp), %rbp
	.seh_setframe	%rbp, 128
	.cfi_def_cfa 6, -64
	.seh_endprologue
	movq	%rcx, -64(%rbp)
	movq	%rdx, -56(%rbp)
	movq	%r8, -48(%rbp)
.LBB95:
	.loc 13 144 0
	movq	-64(%rbp), %rbx
	movq	-48(%rbp), %rax
	movq	%rax, %rcx
	call	_ZSt7forwardISt14default_deleteI15VariableExprASTEEOT_RNSt16remove_referenceIS3_E4typeE
	movq	%rax, %rdx
	leaq	-56(%rbp), %rax
	movq	%rdx, %r8
	movq	%rax, %rdx
	movq	%rbx, %rcx
	call	_ZNSt5tupleIJP7ExprASTSt14default_deleteIS0_EEEC1IRS1_S2_I15VariableExprASTELb1EEEOT_OT0_
.LBE95:
	nop
	addq	$40, %rsp
	popq	%rbx
	.cfi_restore 3
	popq	%rbp
	.cfi_restore 6
	.cfi_def_cfa 7, -24
	ret
	.cfi_endproc
.LFE3677:
	.seh_endproc
	.section	.text$_ZNSt12_Vector_baseISt10unique_ptrI7ExprASTSt14default_deleteIS1_EESaIS4_EEC2Ev,"x"
	.linkonce discard
	.align 2
	.globl	_ZNSt12_Vector_baseISt10unique_ptrI7ExprASTSt14default_deleteIS1_EESaIS4_EEC2Ev
	.def	_ZNSt12_Vector_baseISt10unique_ptrI7ExprASTSt14default_deleteIS1_EESaIS4_EEC2Ev;	.scl	2;	.type	32;	.endef
	.seh_proc	_ZNSt12_Vector_baseISt10unique_ptrI7ExprASTSt14default_deleteIS1_EESaIS4_EEC2Ev
_ZNSt12_Vector_baseISt10unique_ptrI7ExprASTSt14default_deleteIS1_EESaIS4_EEC2Ev:
.LFB3679:
	.loc 14 126 0
	.cfi_startproc
	pushq	%rbp
	.seh_pushreg	%rbp
	.cfi_def_cfa_offset 16
	.cfi_offset 6, -16
	movq	%rsp, %rbp
	.seh_setframe	%rbp, 0
	.cfi_def_cfa_register 6
	subq	$32, %rsp
	.seh_stackalloc	32
	.seh_endprologue
	movq	%rcx, 16(%rbp)
.LBB96:
	.loc 14 127 0
	movq	16(%rbp), %rax
	movq	%rax, %rcx
	call	_ZNSt12_Vector_baseISt10unique_ptrI7ExprASTSt14default_deleteIS1_EESaIS4_EE12_Vector_implC1Ev
.LBE96:
	nop
	addq	$32, %rsp
	popq	%rbp
	.cfi_restore 6
	.cfi_def_cfa 7, 8
	ret
	.cfi_endproc
.LFE3679:
	.seh_endproc
	.section	.text$_ZNSt6vectorISt10unique_ptrI7ExprASTSt14default_deleteIS1_EESaIS4_EE12emplace_backIJS4_EEEvDpOT_,"x"
	.linkonce discard
	.align 2
	.globl	_ZNSt6vectorISt10unique_ptrI7ExprASTSt14default_deleteIS1_EESaIS4_EE12emplace_backIJS4_EEEvDpOT_
	.def	_ZNSt6vectorISt10unique_ptrI7ExprASTSt14default_deleteIS1_EESaIS4_EE12emplace_backIJS4_EEEvDpOT_;	.scl	2;	.type	32;	.endef
	.seh_proc	_ZNSt6vectorISt10unique_ptrI7ExprASTSt14default_deleteIS1_EESaIS4_EE12emplace_backIJS4_EEEvDpOT_
_ZNSt6vectorISt10unique_ptrI7ExprASTSt14default_deleteIS1_EESaIS4_EE12emplace_backIJS4_EEEvDpOT_:
.LFB3681:
	.file 18 "E:/mingw64/lib/gcc/x86_64-w64-mingw32/7.2.0/include/c++/bits/vector.tcc"
	.loc 18 95 0
	.cfi_startproc
	pushq	%rbp
	.seh_pushreg	%rbp
	.cfi_def_cfa_offset 16
	.cfi_offset 6, -16
	pushq	%rbx
	.seh_pushreg	%rbx
	.cfi_def_cfa_offset 24
	.cfi_offset 3, -24
	subq	$40, %rsp
	.seh_stackalloc	40
	.cfi_def_cfa_offset 64
	leaq	128(%rsp), %rbp
	.seh_setframe	%rbp, 128
	.cfi_def_cfa 6, -64
	.seh_endprologue
	movq	%rcx, -64(%rbp)
	movq	%rdx, -56(%rbp)
	.loc 18 98 0
	movq	-64(%rbp), %rax
	movq	8(%rax), %rdx
	movq	-64(%rbp), %rax
	movq	16(%rax), %rax
	cmpq	%rax, %rdx
	je	.L393
	.loc 18 100 0
	movq	-56(%rbp), %rax
	movq	%rax, %rcx
	call	_ZSt7forwardISt10unique_ptrI7ExprASTSt14default_deleteIS1_EEEOT_RNSt16remove_referenceIS5_E4typeE
	movq	%rax, %rcx
	movq	-64(%rbp), %rax
	movq	8(%rax), %rdx
	movq	-64(%rbp), %rax
	movq	%rcx, %r8
	movq	%rax, %rcx
	call	_ZNSt16allocator_traitsISaISt10unique_ptrI7ExprASTSt14default_deleteIS1_EEEE9constructIS4_JS4_EEEvRS5_PT_DpOT0_
	.loc 18 102 0
	movq	-64(%rbp), %rax
	movq	8(%rax), %rax
	leaq	8(%rax), %rdx
	movq	-64(%rbp), %rax
	movq	%rdx, 8(%rax)
	.loc 18 109 0
	jmp	.L395
.L393:
	.loc 18 105 0
	movq	-56(%rbp), %rax
	movq	%rax, %rcx
	call	_ZSt7forwardISt10unique_ptrI7ExprASTSt14default_deleteIS1_EEEOT_RNSt16remove_referenceIS5_E4typeE
	movq	%rax, %rbx
	movq	-64(%rbp), %rcx
	call	_ZNSt6vectorISt10unique_ptrI7ExprASTSt14default_deleteIS1_EESaIS4_EE3endEv
	movq	%rbx, %r8
	movq	%rax, %rdx
	movq	-64(%rbp), %rcx
	call	_ZNSt6vectorISt10unique_ptrI7ExprASTSt14default_deleteIS1_EESaIS4_EE17_M_realloc_insertIJS4_EEEvN9__gnu_cxx17__normal_iteratorIPS4_S6_EEDpOT_
.L395:
	.loc 18 109 0
	nop
	addq	$40, %rsp
	popq	%rbx
	.cfi_restore 3
	popq	%rbp
	.cfi_restore 6
	.cfi_def_cfa 7, -24
	ret
	.cfi_endproc
.LFE3681:
	.seh_endproc
	.section	.text$_ZSt7forwardISt6vectorISt10unique_ptrI7ExprASTSt14default_deleteIS2_EESaIS5_EEEOT_RNSt16remove_referenceIS8_E4typeE,"x"
	.linkonce discard
	.globl	_ZSt7forwardISt6vectorISt10unique_ptrI7ExprASTSt14default_deleteIS2_EESaIS5_EEEOT_RNSt16remove_referenceIS8_E4typeE
	.def	_ZSt7forwardISt6vectorISt10unique_ptrI7ExprASTSt14default_deleteIS2_EESaIS5_EEEOT_RNSt16remove_referenceIS8_E4typeE;	.scl	2;	.type	32;	.endef
	.seh_proc	_ZSt7forwardISt6vectorISt10unique_ptrI7ExprASTSt14default_deleteIS2_EESaIS5_EEEOT_RNSt16remove_referenceIS8_E4typeE
_ZSt7forwardISt6vectorISt10unique_ptrI7ExprASTSt14default_deleteIS2_EESaIS5_EEEOT_RNSt16remove_referenceIS8_E4typeE:
.LFB3682:
	.loc 12 73 0
	.cfi_startproc
	pushq	%rbp
	.seh_pushreg	%rbp
	.cfi_def_cfa_offset 16
	.cfi_offset 6, -16
	movq	%rsp, %rbp
	.seh_setframe	%rbp, 0
	.cfi_def_cfa_register 6
	.seh_endprologue
	movq	%rcx, 16(%rbp)
	.loc 12 74 0
	movq	16(%rbp), %rax
	popq	%rbp
	.cfi_restore 6
	.cfi_def_cfa 7, 8
	ret
	.cfi_endproc
.LFE3682:
	.seh_endproc
	.section	.text$_ZNSt10unique_ptrI11CallExprASTSt14default_deleteIS0_EEC1IS2_vEEPS0_,"x"
	.linkonce discard
	.align 2
	.globl	_ZNSt10unique_ptrI11CallExprASTSt14default_deleteIS0_EEC1IS2_vEEPS0_
	.def	_ZNSt10unique_ptrI11CallExprASTSt14default_deleteIS0_EEC1IS2_vEEPS0_;	.scl	2;	.type	32;	.endef
	.seh_proc	_ZNSt10unique_ptrI11CallExprASTSt14default_deleteIS0_EEC1IS2_vEEPS0_
_ZNSt10unique_ptrI11CallExprASTSt14default_deleteIS0_EEC1IS2_vEEPS0_:
.LFB3689:
	.loc 13 201 0
	.cfi_startproc
	.cfi_personality 0x9b,.LDFCM0
	.cfi_lsda 0x1c,.LLSDA3689
	pushq	%rbp
	.seh_pushreg	%rbp
	.cfi_def_cfa_offset 16
	.cfi_offset 6, -16
	movq	%rsp, %rbp
	.seh_setframe	%rbp, 0
	.cfi_def_cfa_register 6
	subq	$32, %rsp
	.seh_stackalloc	32
	.seh_endprologue
	movq	%rcx, 16(%rbp)
	movq	%rdx, 24(%rbp)
.LBB97:
	.loc 13 202 0
	movq	16(%rbp), %rax
	movq	24(%rbp), %rdx
	movq	%rax, %rcx
	call	_ZNSt15__uniq_ptr_implI11CallExprASTSt14default_deleteIS0_EEC1EPS0_
.LBE97:
	.loc 13 203 0
	nop
	addq	$32, %rsp
	popq	%rbp
	.cfi_restore 6
	.cfi_def_cfa 7, 8
	ret
	.cfi_endproc
.LFE3689:
	.seh_handler	__gxx_personality_seh0, @unwind, @except
	.seh_handlerdata
.LLSDA3689:
	.byte	0xff
	.byte	0xff
	.byte	0x1
	.uleb128 .LLSDACSE3689-.LLSDACSB3689
.LLSDACSB3689:
.LLSDACSE3689:
	.section	.text$_ZNSt10unique_ptrI11CallExprASTSt14default_deleteIS0_EEC1IS2_vEEPS0_,"x"
	.linkonce discard
	.seh_endproc
	.section	.text$_ZNSt15__uniq_ptr_implI11CallExprASTSt14default_deleteIS0_EE6_M_ptrEv,"x"
	.linkonce discard
	.align 2
	.globl	_ZNSt15__uniq_ptr_implI11CallExprASTSt14default_deleteIS0_EE6_M_ptrEv
	.def	_ZNSt15__uniq_ptr_implI11CallExprASTSt14default_deleteIS0_EE6_M_ptrEv;	.scl	2;	.type	32;	.endef
	.seh_proc	_ZNSt15__uniq_ptr_implI11CallExprASTSt14default_deleteIS0_EE6_M_ptrEv
_ZNSt15__uniq_ptr_implI11CallExprASTSt14default_deleteIS0_EE6_M_ptrEv:
.LFB3693:
	.loc 13 146 0
	.cfi_startproc
	pushq	%rbp
	.seh_pushreg	%rbp
	.cfi_def_cfa_offset 16
	.cfi_offset 6, -16
	movq	%rsp, %rbp
	.seh_setframe	%rbp, 0
	.cfi_def_cfa_register 6
	subq	$32, %rsp
	.seh_stackalloc	32
	.seh_endprologue
	movq	%rcx, 16(%rbp)
	.loc 13 146 0
	movq	16(%rbp), %rax
	movq	%rax, %rcx
	call	_ZSt3getILy0EJP11CallExprASTSt14default_deleteIS0_EEERNSt13tuple_elementIXT_ESt5tupleIJDpT0_EEE4typeERS8_
	addq	$32, %rsp
	popq	%rbp
	.cfi_restore 6
	.cfi_def_cfa 7, 8
	ret
	.cfi_endproc
.LFE3693:
	.seh_endproc
	.section	.text$_ZNSt10unique_ptrI11CallExprASTSt14default_deleteIS0_EE11get_deleterEv,"x"
	.linkonce discard
	.align 2
	.globl	_ZNSt10unique_ptrI11CallExprASTSt14default_deleteIS0_EE11get_deleterEv
	.def	_ZNSt10unique_ptrI11CallExprASTSt14default_deleteIS0_EE11get_deleterEv;	.scl	2;	.type	32;	.endef
	.seh_proc	_ZNSt10unique_ptrI11CallExprASTSt14default_deleteIS0_EE11get_deleterEv
_ZNSt10unique_ptrI11CallExprASTSt14default_deleteIS0_EE11get_deleterEv:
.LFB3694:
	.loc 13 341 0
	.cfi_startproc
	pushq	%rbp
	.seh_pushreg	%rbp
	.cfi_def_cfa_offset 16
	.cfi_offset 6, -16
	movq	%rsp, %rbp
	.seh_setframe	%rbp, 0
	.cfi_def_cfa_register 6
	subq	$32, %rsp
	.seh_stackalloc	32
	.seh_endprologue
	movq	%rcx, 16(%rbp)
	.loc 13 342 0
	movq	16(%rbp), %rax
	movq	%rax, %rcx
	call	_ZNSt15__uniq_ptr_implI11CallExprASTSt14default_deleteIS0_EE10_M_deleterEv
	addq	$32, %rsp
	popq	%rbp
	.cfi_restore 6
	.cfi_def_cfa 7, 8
	ret
	.cfi_endproc
.LFE3694:
	.seh_endproc
	.section	.text$_ZN11CallExprASTD1Ev,"x"
	.linkonce discard
	.align 2
	.globl	_ZN11CallExprASTD1Ev
	.def	_ZN11CallExprASTD1Ev;	.scl	2;	.type	32;	.endef
	.seh_proc	_ZN11CallExprASTD1Ev
_ZN11CallExprASTD1Ev:
.LFB3698:
	.loc 5 46 0
	.cfi_startproc
	pushq	%rbp
	.seh_pushreg	%rbp
	.cfi_def_cfa_offset 16
	.cfi_offset 6, -16
	movq	%rsp, %rbp
	.seh_setframe	%rbp, 0
	.cfi_def_cfa_register 6
	subq	$32, %rsp
	.seh_stackalloc	32
	.seh_endprologue
	movq	%rcx, 16(%rbp)
.LBB98:
	.loc 5 46 0
	leaq	16+_ZTV11CallExprAST(%rip), %rdx
	movq	16(%rbp), %rax
	movq	%rdx, (%rax)
	movq	16(%rbp), %rax
	addq	$40, %rax
	movq	%rax, %rcx
	call	_ZNSt6vectorISt10unique_ptrI7ExprASTSt14default_deleteIS1_EESaIS4_EED1Ev
	movq	16(%rbp), %rax
	addq	$8, %rax
	movq	%rax, %rcx
	call	_ZNSt7__cxx1112basic_stringIcSt11char_traitsIcESaIcEED1Ev
	movq	16(%rbp), %rax
	movq	%rax, %rcx
	call	_ZN7ExprASTD2Ev
.LBE98:
	nop
	addq	$32, %rsp
	popq	%rbp
	.cfi_restore 6
	.cfi_def_cfa 7, 8
	ret
	.cfi_endproc
.LFE3698:
	.seh_endproc
	.section	.text$_ZN11CallExprASTD0Ev,"x"
	.linkonce discard
	.align 2
	.globl	_ZN11CallExprASTD0Ev
	.def	_ZN11CallExprASTD0Ev;	.scl	2;	.type	32;	.endef
	.seh_proc	_ZN11CallExprASTD0Ev
_ZN11CallExprASTD0Ev:
.LFB3699:
	.loc 5 46 0
	.cfi_startproc
	pushq	%rbp
	.seh_pushreg	%rbp
	.cfi_def_cfa_offset 16
	.cfi_offset 6, -16
	movq	%rsp, %rbp
	.seh_setframe	%rbp, 0
	.cfi_def_cfa_register 6
	subq	$32, %rsp
	.seh_stackalloc	32
	.seh_endprologue
	movq	%rcx, 16(%rbp)
	.loc 5 46 0
	movq	16(%rbp), %rcx
	call	_ZN11CallExprASTD1Ev
	movl	$64, %edx
	movq	16(%rbp), %rcx
	call	_ZdlPvy
	nop
	addq	$32, %rsp
	popq	%rbp
	.cfi_restore 6
	.cfi_def_cfa 7, 8
	ret
	.cfi_endproc
.LFE3699:
	.seh_endproc
	.section	.text$_ZNKSt14default_deleteI11CallExprASTEclEPS0_,"x"
	.linkonce discard
	.align 2
	.globl	_ZNKSt14default_deleteI11CallExprASTEclEPS0_
	.def	_ZNKSt14default_deleteI11CallExprASTEclEPS0_;	.scl	2;	.type	32;	.endef
	.seh_proc	_ZNKSt14default_deleteI11CallExprASTEclEPS0_
_ZNKSt14default_deleteI11CallExprASTEclEPS0_:
.LFB3695:
	.loc 13 72 0
	.cfi_startproc
	pushq	%rbp
	.seh_pushreg	%rbp
	.cfi_def_cfa_offset 16
	.cfi_offset 6, -16
	movq	%rsp, %rbp
	.seh_setframe	%rbp, 0
	.cfi_def_cfa_register 6
	subq	$32, %rsp
	.seh_stackalloc	32
	.seh_endprologue
	movq	%rcx, 16(%rbp)
	movq	%rdx, 24(%rbp)
	.loc 13 78 0
	cmpq	$0, 24(%rbp)
	je	.L407
	.loc 13 78 0 is_stmt 0 discriminator 1
	movq	24(%rbp), %rax
	movq	(%rax), %rax
	addq	$8, %rax
	movq	(%rax), %rax
	movq	24(%rbp), %rdx
	movq	%rdx, %rcx
	call	*%rax
.LVL13:
.L407:
	.loc 13 79 0 is_stmt 1
	nop
	addq	$32, %rsp
	popq	%rbp
	.cfi_restore 6
	.cfi_def_cfa 7, 8
	ret
	.cfi_endproc
.LFE3695:
	.seh_endproc
	.section	.text$_ZNSt10unique_ptrI11CallExprASTSt14default_deleteIS0_EE7releaseEv,"x"
	.linkonce discard
	.align 2
	.globl	_ZNSt10unique_ptrI11CallExprASTSt14default_deleteIS0_EE7releaseEv
	.def	_ZNSt10unique_ptrI11CallExprASTSt14default_deleteIS0_EE7releaseEv;	.scl	2;	.type	32;	.endef
	.seh_proc	_ZNSt10unique_ptrI11CallExprASTSt14default_deleteIS0_EE7releaseEv
_ZNSt10unique_ptrI11CallExprASTSt14default_deleteIS0_EE7releaseEv:
.LFB3700:
	.loc 13 357 0
	.cfi_startproc
	pushq	%rbp
	.seh_pushreg	%rbp
	.cfi_def_cfa_offset 16
	.cfi_offset 6, -16
	movq	%rsp, %rbp
	.seh_setframe	%rbp, 0
	.cfi_def_cfa_register 6
	subq	$48, %rsp
	.seh_stackalloc	48
	.seh_endprologue
	movq	%rcx, 16(%rbp)
	.loc 13 359 0
	movq	16(%rbp), %rcx
	call	_ZNKSt10unique_ptrI11CallExprASTSt14default_deleteIS0_EE3getEv
	movq	%rax, -8(%rbp)
	.loc 13 360 0
	movq	16(%rbp), %rax
	movq	%rax, %rcx
	call	_ZNSt15__uniq_ptr_implI11CallExprASTSt14default_deleteIS0_EE6_M_ptrEv
	movq	$0, (%rax)
	.loc 13 361 0
	movq	-8(%rbp), %rax
	.loc 13 362 0
	addq	$48, %rsp
	popq	%rbp
	.cfi_restore 6
	.cfi_def_cfa 7, 8
	ret
	.cfi_endproc
.LFE3700:
	.seh_endproc
	.section	.text$_ZSt7forwardISt14default_deleteI11CallExprASTEEOT_RNSt16remove_referenceIS3_E4typeE,"x"
	.linkonce discard
	.globl	_ZSt7forwardISt14default_deleteI11CallExprASTEEOT_RNSt16remove_referenceIS3_E4typeE
	.def	_ZSt7forwardISt14default_deleteI11CallExprASTEEOT_RNSt16remove_referenceIS3_E4typeE;	.scl	2;	.type	32;	.endef
	.seh_proc	_ZSt7forwardISt14default_deleteI11CallExprASTEEOT_RNSt16remove_referenceIS3_E4typeE
_ZSt7forwardISt14default_deleteI11CallExprASTEEOT_RNSt16remove_referenceIS3_E4typeE:
.LFB3701:
	.loc 12 73 0
	.cfi_startproc
	pushq	%rbp
	.seh_pushreg	%rbp
	.cfi_def_cfa_offset 16
	.cfi_offset 6, -16
	movq	%rsp, %rbp
	.seh_setframe	%rbp, 0
	.cfi_def_cfa_register 6
	.seh_endprologue
	movq	%rcx, 16(%rbp)
	.loc 12 74 0
	movq	16(%rbp), %rax
	popq	%rbp
	.cfi_restore 6
	.cfi_def_cfa 7, 8
	ret
	.cfi_endproc
.LFE3701:
	.seh_endproc
	.section	.text$_ZNSt15__uniq_ptr_implI7ExprASTSt14default_deleteIS0_EEC1IS1_I11CallExprASTEEEPS0_OT_,"x"
	.linkonce discard
	.align 2
	.globl	_ZNSt15__uniq_ptr_implI7ExprASTSt14default_deleteIS0_EEC1IS1_I11CallExprASTEEEPS0_OT_
	.def	_ZNSt15__uniq_ptr_implI7ExprASTSt14default_deleteIS0_EEC1IS1_I11CallExprASTEEEPS0_OT_;	.scl	2;	.type	32;	.endef
	.seh_proc	_ZNSt15__uniq_ptr_implI7ExprASTSt14default_deleteIS0_EEC1IS1_I11CallExprASTEEEPS0_OT_
_ZNSt15__uniq_ptr_implI7ExprASTSt14default_deleteIS0_EEC1IS1_I11CallExprASTEEEPS0_OT_:
.LFB3706:
	.loc 13 143 0
	.cfi_startproc
	pushq	%rbp
	.seh_pushreg	%rbp
	.cfi_def_cfa_offset 16
	.cfi_offset 6, -16
	pushq	%rbx
	.seh_pushreg	%rbx
	.cfi_def_cfa_offset 24
	.cfi_offset 3, -24
	subq	$40, %rsp
	.seh_stackalloc	40
	.cfi_def_cfa_offset 64
	leaq	128(%rsp), %rbp
	.seh_setframe	%rbp, 128
	.cfi_def_cfa 6, -64
	.seh_endprologue
	movq	%rcx, -64(%rbp)
	movq	%rdx, -56(%rbp)
	movq	%r8, -48(%rbp)
.LBB99:
	.loc 13 144 0
	movq	-64(%rbp), %rbx
	movq	-48(%rbp), %rax
	movq	%rax, %rcx
	call	_ZSt7forwardISt14default_deleteI11CallExprASTEEOT_RNSt16remove_referenceIS3_E4typeE
	movq	%rax, %rdx
	leaq	-56(%rbp), %rax
	movq	%rdx, %r8
	movq	%rax, %rdx
	movq	%rbx, %rcx
	call	_ZNSt5tupleIJP7ExprASTSt14default_deleteIS0_EEEC1IRS1_S2_I11CallExprASTELb1EEEOT_OT0_
.LBE99:
	nop
	addq	$40, %rsp
	popq	%rbx
	.cfi_restore 3
	popq	%rbp
	.cfi_restore 6
	.cfi_def_cfa 7, -24
	ret
	.cfi_endproc
.LFE3706:
	.seh_endproc
	.section	.text$_ZN9__gnu_cxx13new_allocatorISt13_Rb_tree_nodeISt4pairIKciEEEC2Ev,"x"
	.linkonce discard
	.align 2
	.globl	_ZN9__gnu_cxx13new_allocatorISt13_Rb_tree_nodeISt4pairIKciEEEC2Ev
	.def	_ZN9__gnu_cxx13new_allocatorISt13_Rb_tree_nodeISt4pairIKciEEEC2Ev;	.scl	2;	.type	32;	.endef
	.seh_proc	_ZN9__gnu_cxx13new_allocatorISt13_Rb_tree_nodeISt4pairIKciEEEC2Ev
_ZN9__gnu_cxx13new_allocatorISt13_Rb_tree_nodeISt4pairIKciEEEC2Ev:
.LFB3708:
	.file 19 "E:/mingw64/lib/gcc/x86_64-w64-mingw32/7.2.0/include/c++/ext/new_allocator.h"
	.loc 19 79 0
	.cfi_startproc
	pushq	%rbp
	.seh_pushreg	%rbp
	.cfi_def_cfa_offset 16
	.cfi_offset 6, -16
	movq	%rsp, %rbp
	.seh_setframe	%rbp, 0
	.cfi_def_cfa_register 6
	.seh_endprologue
	movq	%rcx, 16(%rbp)
	.loc 19 79 0
	nop
	popq	%rbp
	.cfi_restore 6
	.cfi_def_cfa 7, 8
	ret
	.cfi_endproc
.LFE3708:
	.seh_endproc
	.section	.text$_ZN9__gnu_cxx13new_allocatorISt13_Rb_tree_nodeISt4pairIKciEEED2Ev,"x"
	.linkonce discard
	.align 2
	.globl	_ZN9__gnu_cxx13new_allocatorISt13_Rb_tree_nodeISt4pairIKciEEED2Ev
	.def	_ZN9__gnu_cxx13new_allocatorISt13_Rb_tree_nodeISt4pairIKciEEED2Ev;	.scl	2;	.type	32;	.endef
	.seh_proc	_ZN9__gnu_cxx13new_allocatorISt13_Rb_tree_nodeISt4pairIKciEEED2Ev
_ZN9__gnu_cxx13new_allocatorISt13_Rb_tree_nodeISt4pairIKciEEED2Ev:
.LFB3711:
	.loc 19 86 0
	.cfi_startproc
	pushq	%rbp
	.seh_pushreg	%rbp
	.cfi_def_cfa_offset 16
	.cfi_offset 6, -16
	movq	%rsp, %rbp
	.seh_setframe	%rbp, 0
	.cfi_def_cfa_register 6
	.seh_endprologue
	movq	%rcx, 16(%rbp)
	.loc 19 86 0
	nop
	popq	%rbp
	.cfi_restore 6
	.cfi_def_cfa 7, 8
	ret
	.cfi_endproc
.LFE3711:
	.seh_endproc
	.section	.text$_ZNSt8_Rb_treeIcSt4pairIKciESt10_Select1stIS2_ESt4lessIcESaIS2_EE8_M_eraseEPSt13_Rb_tree_nodeIS2_E,"x"
	.linkonce discard
	.align 2
	.globl	_ZNSt8_Rb_treeIcSt4pairIKciESt10_Select1stIS2_ESt4lessIcESaIS2_EE8_M_eraseEPSt13_Rb_tree_nodeIS2_E
	.def	_ZNSt8_Rb_treeIcSt4pairIKciESt10_Select1stIS2_ESt4lessIcESaIS2_EE8_M_eraseEPSt13_Rb_tree_nodeIS2_E;	.scl	2;	.type	32;	.endef
	.seh_proc	_ZNSt8_Rb_treeIcSt4pairIKciESt10_Select1stIS2_ESt4lessIcESaIS2_EE8_M_eraseEPSt13_Rb_tree_nodeIS2_E
_ZNSt8_Rb_treeIcSt4pairIKciESt10_Select1stIS2_ESt4lessIcESaIS2_EE8_M_eraseEPSt13_Rb_tree_nodeIS2_E:
.LFB3713:
	.loc 6 1850 0
	.cfi_startproc
	pushq	%rbp
	.seh_pushreg	%rbp
	.cfi_def_cfa_offset 16
	.cfi_offset 6, -16
	movq	%rsp, %rbp
	.seh_setframe	%rbp, 0
	.cfi_def_cfa_register 6
	subq	$48, %rsp
	.seh_stackalloc	48
	.seh_endprologue
	movq	%rcx, 16(%rbp)
	movq	%rdx, 24(%rbp)
.L417:
	.loc 6 1854 0
	cmpq	$0, 24(%rbp)
	je	.L418
.LBB100:
	.loc 6 1856 0
	movq	24(%rbp), %rax
	movq	%rax, %rcx
	call	_ZNSt8_Rb_treeIcSt4pairIKciESt10_Select1stIS2_ESt4lessIcESaIS2_EE8_S_rightEPSt18_Rb_tree_node_base
	movq	%rax, %rdx
	movq	16(%rbp), %rcx
	call	_ZNSt8_Rb_treeIcSt4pairIKciESt10_Select1stIS2_ESt4lessIcESaIS2_EE8_M_eraseEPSt13_Rb_tree_nodeIS2_E
	.loc 6 1857 0
	movq	24(%rbp), %rax
	movq	%rax, %rcx
	call	_ZNSt8_Rb_treeIcSt4pairIKciESt10_Select1stIS2_ESt4lessIcESaIS2_EE7_S_leftEPSt18_Rb_tree_node_base
	movq	%rax, -8(%rbp)
	.loc 6 1858 0
	movq	24(%rbp), %rax
	movq	%rax, %rdx
	movq	16(%rbp), %rcx
	call	_ZNSt8_Rb_treeIcSt4pairIKciESt10_Select1stIS2_ESt4lessIcESaIS2_EE12_M_drop_nodeEPSt13_Rb_tree_nodeIS2_E
	.loc 6 1859 0
	movq	-8(%rbp), %rax
	movq	%rax, 24(%rbp)
.LBE100:
	.loc 6 1854 0
	jmp	.L417
.L418:
	.loc 6 1861 0
	nop
	addq	$48, %rsp
	popq	%rbp
	.cfi_restore 6
	.cfi_def_cfa 7, 8
	ret
	.cfi_endproc
.LFE3713:
	.seh_endproc
	.section	.text$_ZNSt8_Rb_treeIcSt4pairIKciESt10_Select1stIS2_ESt4lessIcESaIS2_EE8_M_beginEv,"x"
	.linkonce discard
	.align 2
	.globl	_ZNSt8_Rb_treeIcSt4pairIKciESt10_Select1stIS2_ESt4lessIcESaIS2_EE8_M_beginEv
	.def	_ZNSt8_Rb_treeIcSt4pairIKciESt10_Select1stIS2_ESt4lessIcESaIS2_EE8_M_beginEv;	.scl	2;	.type	32;	.endef
	.seh_proc	_ZNSt8_Rb_treeIcSt4pairIKciESt10_Select1stIS2_ESt4lessIcESaIS2_EE8_M_beginEv
_ZNSt8_Rb_treeIcSt4pairIKciESt10_Select1stIS2_ESt4lessIcESaIS2_EE8_M_beginEv:
.LFB3714:
	.loc 6 736 0
	.cfi_startproc
	pushq	%rbp
	.seh_pushreg	%rbp
	.cfi_def_cfa_offset 16
	.cfi_offset 6, -16
	movq	%rsp, %rbp
	.seh_setframe	%rbp, 0
	.cfi_def_cfa_register 6
	.seh_endprologue
	movq	%rcx, 16(%rbp)
	.loc 6 737 0
	movq	16(%rbp), %rax
	movq	16(%rax), %rax
	popq	%rbp
	.cfi_restore 6
	.cfi_def_cfa 7, 8
	ret
	.cfi_endproc
.LFE3714:
	.seh_endproc
	.section	.text$_ZNSt3mapIciSt4lessIcESaISt4pairIKciEEE11lower_boundERS3_,"x"
	.linkonce discard
	.align 2
	.globl	_ZNSt3mapIciSt4lessIcESaISt4pairIKciEEE11lower_boundERS3_
	.def	_ZNSt3mapIciSt4lessIcESaISt4pairIKciEEE11lower_boundERS3_;	.scl	2;	.type	32;	.endef
	.seh_proc	_ZNSt3mapIciSt4lessIcESaISt4pairIKciEEE11lower_boundERS3_
_ZNSt3mapIciSt4lessIcESaISt4pairIKciEEE11lower_boundERS3_:
.LFB3715:
	.loc 8 1218 0
	.cfi_startproc
	pushq	%rbp
	.seh_pushreg	%rbp
	.cfi_def_cfa_offset 16
	.cfi_offset 6, -16
	movq	%rsp, %rbp
	.seh_setframe	%rbp, 0
	.cfi_def_cfa_register 6
	subq	$32, %rsp
	.seh_stackalloc	32
	.seh_endprologue
	movq	%rcx, 16(%rbp)
	movq	%rdx, 24(%rbp)
	.loc 8 1219 0
	movq	16(%rbp), %rax
	movq	24(%rbp), %rdx
	movq	%rax, %rcx
	call	_ZNSt8_Rb_treeIcSt4pairIKciESt10_Select1stIS2_ESt4lessIcESaIS2_EE11lower_boundERS1_
	addq	$32, %rsp
	popq	%rbp
	.cfi_restore 6
	.cfi_def_cfa 7, 8
	ret
	.cfi_endproc
.LFE3715:
	.seh_endproc
	.section	.text$_ZNSt3mapIciSt4lessIcESaISt4pairIKciEEE3endEv,"x"
	.linkonce discard
	.align 2
	.globl	_ZNSt3mapIciSt4lessIcESaISt4pairIKciEEE3endEv
	.def	_ZNSt3mapIciSt4lessIcESaISt4pairIKciEEE3endEv;	.scl	2;	.type	32;	.endef
	.seh_proc	_ZNSt3mapIciSt4lessIcESaISt4pairIKciEEE3endEv
_ZNSt3mapIciSt4lessIcESaISt4pairIKciEEE3endEv:
.LFB3716:
	.loc 8 366 0
	.cfi_startproc
	pushq	%rbp
	.seh_pushreg	%rbp
	.cfi_def_cfa_offset 16
	.cfi_offset 6, -16
	movq	%rsp, %rbp
	.seh_setframe	%rbp, 0
	.cfi_def_cfa_register 6
	subq	$32, %rsp
	.seh_stackalloc	32
	.seh_endprologue
	movq	%rcx, 16(%rbp)
	.loc 8 367 0
	movq	16(%rbp), %rax
	movq	%rax, %rcx
	call	_ZNSt8_Rb_treeIcSt4pairIKciESt10_Select1stIS2_ESt4lessIcESaIS2_EE3endEv
	addq	$32, %rsp
	popq	%rbp
	.cfi_restore 6
	.cfi_def_cfa 7, 8
	ret
	.cfi_endproc
.LFE3716:
	.seh_endproc
	.section	.text$_ZNKSt17_Rb_tree_iteratorISt4pairIKciEEeqERKS3_,"x"
	.linkonce discard
	.align 2
	.globl	_ZNKSt17_Rb_tree_iteratorISt4pairIKciEEeqERKS3_
	.def	_ZNKSt17_Rb_tree_iteratorISt4pairIKciEEeqERKS3_;	.scl	2;	.type	32;	.endef
	.seh_proc	_ZNKSt17_Rb_tree_iteratorISt4pairIKciEEeqERKS3_
_ZNKSt17_Rb_tree_iteratorISt4pairIKciEEeqERKS3_:
.LFB3717:
	.loc 6 315 0
	.cfi_startproc
	pushq	%rbp
	.seh_pushreg	%rbp
	.cfi_def_cfa_offset 16
	.cfi_offset 6, -16
	movq	%rsp, %rbp
	.seh_setframe	%rbp, 0
	.cfi_def_cfa_register 6
	.seh_endprologue
	movq	%rcx, 16(%rbp)
	movq	%rdx, 24(%rbp)
	.loc 6 316 0
	movq	16(%rbp), %rax
	movq	(%rax), %rdx
	movq	24(%rbp), %rax
	movq	(%rax), %rax
	cmpq	%rax, %rdx
	sete	%al
	popq	%rbp
	.cfi_restore 6
	.cfi_def_cfa 7, 8
	ret
	.cfi_endproc
.LFE3717:
	.seh_endproc
	.section	.text$_ZNKSt3mapIciSt4lessIcESaISt4pairIKciEEE8key_compEv,"x"
	.linkonce discard
	.align 2
	.globl	_ZNKSt3mapIciSt4lessIcESaISt4pairIKciEEE8key_compEv
	.def	_ZNKSt3mapIciSt4lessIcESaISt4pairIKciEEE8key_compEv;	.scl	2;	.type	32;	.endef
	.seh_proc	_ZNKSt3mapIciSt4lessIcESaISt4pairIKciEEE8key_compEv
_ZNKSt3mapIciSt4lessIcESaISt4pairIKciEEE8key_compEv:
.LFB3718:
	.loc 8 1121 0
	.cfi_startproc
	pushq	%rbp
	.seh_pushreg	%rbp
	.cfi_def_cfa_offset 16
	.cfi_offset 6, -16
	pushq	%rbx
	.seh_pushreg	%rbx
	.cfi_def_cfa_offset 24
	.cfi_offset 3, -24
	subq	$40, %rsp
	.seh_stackalloc	40
	.cfi_def_cfa_offset 64
	leaq	128(%rsp), %rbp
	.seh_setframe	%rbp, 128
	.cfi_def_cfa 6, -64
	.seh_endprologue
	movq	%rcx, -64(%rbp)
	.loc 8 1122 0
	movq	-64(%rbp), %rax
	movq	%rax, %rcx
	call	_ZNKSt8_Rb_treeIcSt4pairIKciESt10_Select1stIS2_ESt4lessIcESaIS2_EE8key_compEv
	movl	%ebx, %eax
	addq	$40, %rsp
	popq	%rbx
	.cfi_restore 3
	popq	%rbp
	.cfi_restore 6
	.cfi_def_cfa 7, -24
	ret
	.cfi_endproc
.LFE3718:
	.seh_endproc
	.section	.text$_ZNKSt17_Rb_tree_iteratorISt4pairIKciEEdeEv,"x"
	.linkonce discard
	.align 2
	.globl	_ZNKSt17_Rb_tree_iteratorISt4pairIKciEEdeEv
	.def	_ZNKSt17_Rb_tree_iteratorISt4pairIKciEEdeEv;	.scl	2;	.type	32;	.endef
	.seh_proc	_ZNKSt17_Rb_tree_iteratorISt4pairIKciEEdeEv
_ZNKSt17_Rb_tree_iteratorISt4pairIKciEEdeEv:
.LFB3719:
	.loc 6 277 0
	.cfi_startproc
	pushq	%rbp
	.seh_pushreg	%rbp
	.cfi_def_cfa_offset 16
	.cfi_offset 6, -16
	movq	%rsp, %rbp
	.seh_setframe	%rbp, 0
	.cfi_def_cfa_register 6
	subq	$32, %rsp
	.seh_stackalloc	32
	.seh_endprologue
	movq	%rcx, 16(%rbp)
	.loc 6 278 0
	movq	16(%rbp), %rax
	movq	(%rax), %rax
	movq	%rax, %rcx
	call	_ZNSt13_Rb_tree_nodeISt4pairIKciEE9_M_valptrEv
	addq	$32, %rsp
	popq	%rbp
	.cfi_restore 6
	.cfi_def_cfa 7, 8
	ret
	.cfi_endproc
.LFE3719:
	.seh_endproc
	.section	.text$_ZNKSt4lessIcEclERKcS2_,"x"
	.linkonce discard
	.align 2
	.globl	_ZNKSt4lessIcEclERKcS2_
	.def	_ZNKSt4lessIcEclERKcS2_;	.scl	2;	.type	32;	.endef
	.seh_proc	_ZNKSt4lessIcEclERKcS2_
_ZNKSt4lessIcEclERKcS2_:
.LFB3720:
	.file 20 "E:/mingw64/lib/gcc/x86_64-w64-mingw32/7.2.0/include/c++/bits/stl_function.h"
	.loc 20 385 0
	.cfi_startproc
	pushq	%rbp
	.seh_pushreg	%rbp
	.cfi_def_cfa_offset 16
	.cfi_offset 6, -16
	movq	%rsp, %rbp
	.seh_setframe	%rbp, 0
	.cfi_def_cfa_register 6
	.seh_endprologue
	movq	%rcx, 16(%rbp)
	movq	%rdx, 24(%rbp)
	movq	%r8, 32(%rbp)
	.loc 20 386 0
	movq	24(%rbp), %rax
	movzbl	(%rax), %edx
	movq	32(%rbp), %rax
	movzbl	(%rax), %eax
	cmpb	%al, %dl
	setl	%al
	popq	%rbp
	.cfi_restore 6
	.cfi_def_cfa 7, 8
	ret
	.cfi_endproc
.LFE3720:
	.seh_endproc
	.section	.text$_ZSt4moveIRcEONSt16remove_referenceIT_E4typeEOS2_,"x"
	.linkonce discard
	.globl	_ZSt4moveIRcEONSt16remove_referenceIT_E4typeEOS2_
	.def	_ZSt4moveIRcEONSt16remove_referenceIT_E4typeEOS2_;	.scl	2;	.type	32;	.endef
	.seh_proc	_ZSt4moveIRcEONSt16remove_referenceIT_E4typeEOS2_
_ZSt4moveIRcEONSt16remove_referenceIT_E4typeEOS2_:
.LFB3721:
	.loc 12 98 0
	.cfi_startproc
	pushq	%rbp
	.seh_pushreg	%rbp
	.cfi_def_cfa_offset 16
	.cfi_offset 6, -16
	movq	%rsp, %rbp
	.seh_setframe	%rbp, 0
	.cfi_def_cfa_register 6
	.seh_endprologue
	movq	%rcx, 16(%rbp)
	.loc 12 99 0
	movq	16(%rbp), %rax
	popq	%rbp
	.cfi_restore 6
	.cfi_def_cfa 7, 8
	ret
	.cfi_endproc
.LFE3721:
	.seh_endproc
	.section	.text$_ZNSt5tupleIJOcEEC1EOS1_,"x"
	.linkonce discard
	.align 2
	.globl	_ZNSt5tupleIJOcEEC1EOS1_
	.def	_ZNSt5tupleIJOcEEC1EOS1_;	.scl	2;	.type	32;	.endef
	.seh_proc	_ZNSt5tupleIJOcEEC1EOS1_
_ZNSt5tupleIJOcEEC1EOS1_:
.LFB3737:
	.loc 15 662 0
	.cfi_startproc
	pushq	%rbp
	.seh_pushreg	%rbp
	.cfi_def_cfa_offset 16
	.cfi_offset 6, -16
	movq	%rsp, %rbp
	.seh_setframe	%rbp, 0
	.cfi_def_cfa_register 6
	subq	$32, %rsp
	.seh_stackalloc	32
	.seh_endprologue
	movq	%rcx, 16(%rbp)
	movq	%rdx, 24(%rbp)
.LBB101:
	.loc 15 662 0
	movq	16(%rbp), %rax
	movq	24(%rbp), %rdx
	movq	%rax, %rcx
	call	_ZNSt11_Tuple_implILy0EJOcEEC2EOS1_
.LBE101:
	nop
	addq	$32, %rsp
	popq	%rbp
	.cfi_restore 6
	.cfi_def_cfa 7, 8
	ret
	.cfi_endproc
.LFE3737:
	.seh_endproc
	.section	.text$_ZSt16forward_as_tupleIJcEESt5tupleIJDpOT_EES3_,"x"
	.linkonce discard
	.globl	_ZSt16forward_as_tupleIJcEESt5tupleIJDpOT_EES3_
	.def	_ZSt16forward_as_tupleIJcEESt5tupleIJDpOT_EES3_;	.scl	2;	.type	32;	.endef
	.seh_proc	_ZSt16forward_as_tupleIJcEESt5tupleIJDpOT_EES3_
_ZSt16forward_as_tupleIJcEESt5tupleIJDpOT_EES3_:
.LFB3722:
	.loc 15 1459 0
	.cfi_startproc
	.cfi_personality 0x9b,.LDFCM0
	.cfi_lsda 0x1c,.LLSDA3722
	pushq	%rbp
	.seh_pushreg	%rbp
	.cfi_def_cfa_offset 16
	.cfi_offset 6, -16
	movq	%rsp, %rbp
	.seh_setframe	%rbp, 0
	.cfi_def_cfa_register 6
	subq	$32, %rsp
	.seh_stackalloc	32
	.seh_endprologue
	movq	%rcx, 16(%rbp)
	movq	%rdx, 24(%rbp)
	.loc 15 1460 0
	movq	24(%rbp), %rax
	movq	%rax, %rcx
	call	_ZSt7forwardIcEOT_RNSt16remove_referenceIS0_E4typeE
	movq	%rax, %rdx
	movq	16(%rbp), %rcx
	call	_ZNSt5tupleIJOcEEC1IJcELb1EEEDpOT_
	movq	16(%rbp), %rax
	addq	$32, %rsp
	popq	%rbp
	.cfi_restore 6
	.cfi_def_cfa 7, 8
	ret
	.cfi_endproc
.LFE3722:
	.seh_handler	__gxx_personality_seh0, @unwind, @except
	.seh_handlerdata
.LLSDA3722:
	.byte	0xff
	.byte	0xff
	.byte	0x1
	.uleb128 .LLSDACSE3722-.LLSDACSB3722
.LLSDACSB3722:
.LLSDACSE3722:
	.section	.text$_ZSt16forward_as_tupleIJcEESt5tupleIJDpOT_EES3_,"x"
	.linkonce discard
	.seh_endproc
	.section	.text$_ZNSt23_Rb_tree_const_iteratorISt4pairIKciEEC1ERKSt17_Rb_tree_iteratorIS2_E,"x"
	.linkonce discard
	.align 2
	.globl	_ZNSt23_Rb_tree_const_iteratorISt4pairIKciEEC1ERKSt17_Rb_tree_iteratorIS2_E
	.def	_ZNSt23_Rb_tree_const_iteratorISt4pairIKciEEC1ERKSt17_Rb_tree_iteratorIS2_E;	.scl	2;	.type	32;	.endef
	.seh_proc	_ZNSt23_Rb_tree_const_iteratorISt4pairIKciEEC1ERKSt17_Rb_tree_iteratorIS2_E
_ZNSt23_Rb_tree_const_iteratorISt4pairIKciEEC1ERKSt17_Rb_tree_iteratorIS2_E:
.LFB3740:
	.loc 6 348 0
	.cfi_startproc
	pushq	%rbp
	.seh_pushreg	%rbp
	.cfi_def_cfa_offset 16
	.cfi_offset 6, -16
	movq	%rsp, %rbp
	.seh_setframe	%rbp, 0
	.cfi_def_cfa_register 6
	.seh_endprologue
	movq	%rcx, 16(%rbp)
	movq	%rdx, 24(%rbp)
.LBB102:
	.loc 6 349 0
	movq	24(%rbp), %rax
	movq	(%rax), %rdx
	movq	16(%rbp), %rax
	movq	%rdx, (%rax)
.LBE102:
	nop
	popq	%rbp
	.cfi_restore 6
	.cfi_def_cfa 7, 8
	ret
	.cfi_endproc
.LFE3740:
	.seh_endproc
	.section	.text$_ZNSt8_Rb_treeIcSt4pairIKciESt10_Select1stIS2_ESt4lessIcESaIS2_EE22_M_emplace_hint_uniqueIJRKSt21piecewise_construct_tSt5tupleIJOcEESD_IJEEEEESt17_Rb_tree_iteratorIS2_ESt23_Rb_tree_const_iteratorIS2_EDpOT_,"x"
	.linkonce discard
	.align 2
	.globl	_ZNSt8_Rb_treeIcSt4pairIKciESt10_Select1stIS2_ESt4lessIcESaIS2_EE22_M_emplace_hint_uniqueIJRKSt21piecewise_construct_tSt5tupleIJOcEESD_IJEEEEESt17_Rb_tree_iteratorIS2_ESt23_Rb_tree_const_iteratorIS2_EDpOT_
	.def	_ZNSt8_Rb_treeIcSt4pairIKciESt10_Select1stIS2_ESt4lessIcESaIS2_EE22_M_emplace_hint_uniqueIJRKSt21piecewise_construct_tSt5tupleIJOcEESD_IJEEEEESt17_Rb_tree_iteratorIS2_ESt23_Rb_tree_const_iteratorIS2_EDpOT_;	.scl	2;	.type	32;	.endef
	.seh_proc	_ZNSt8_Rb_treeIcSt4pairIKciESt10_Select1stIS2_ESt4lessIcESaIS2_EE22_M_emplace_hint_uniqueIJRKSt21piecewise_construct_tSt5tupleIJOcEESD_IJEEEEESt17_Rb_tree_iteratorIS2_ESt23_Rb_tree_const_iteratorIS2_EDpOT_
_ZNSt8_Rb_treeIcSt4pairIKciESt10_Select1stIS2_ESt4lessIcESaIS2_EE22_M_emplace_hint_uniqueIJRKSt21piecewise_construct_tSt5tupleIJOcEESD_IJEEEEESt17_Rb_tree_iteratorIS2_ESt23_Rb_tree_const_iteratorIS2_EDpOT_:
.LFB3741:
	.loc 6 2395 0
	.cfi_startproc
	.cfi_personality 0x9b,.LDFCM0
	.cfi_lsda 0x1c,.LLSDA3741
	pushq	%rbp
	.seh_pushreg	%rbp
	.cfi_def_cfa_offset 16
	.cfi_offset 6, -16
	pushq	%rsi
	.seh_pushreg	%rsi
	.cfi_def_cfa_offset 24
	.cfi_offset 4, -24
	pushq	%rbx
	.seh_pushreg	%rbx
	.cfi_def_cfa_offset 32
	.cfi_offset 3, -32
	movq	%rsp, %rbp
	.seh_setframe	%rbp, 0
	.cfi_def_cfa_register 6
	subq	$64, %rsp
	.seh_stackalloc	64
	.seh_endprologue
	movq	%rcx, 32(%rbp)
	movq	%rdx, 40(%rbp)
	movq	%r8, 48(%rbp)
	movq	%r9, 56(%rbp)
	.loc 6 2398 0
	movq	64(%rbp), %rax
	movq	%rax, %rcx
	call	_ZSt7forwardISt5tupleIJEEEOT_RNSt16remove_referenceIS2_E4typeE
	movq	%rax, %rsi
	movq	56(%rbp), %rax
	movq	%rax, %rcx
	call	_ZSt7forwardISt5tupleIJOcEEEOT_RNSt16remove_referenceIS3_E4typeE
	movq	%rax, %rbx
	movq	48(%rbp), %rax
	movq	%rax, %rcx
	call	_ZSt7forwardIRKSt21piecewise_construct_tEOT_RNSt16remove_referenceIS3_E4typeE
	movq	%rsi, %r9
	movq	%rbx, %r8
	movq	%rax, %rdx
	movq	32(%rbp), %rcx
.LEHB56:
	call	_ZNSt8_Rb_treeIcSt4pairIKciESt10_Select1stIS2_ESt4lessIcESaIS2_EE14_M_create_nodeIJRKSt21piecewise_construct_tSt5tupleIJOcEESD_IJEEEEEPSt13_Rb_tree_nodeIS2_EDpOT_
.LEHE56:
	movq	%rax, -8(%rbp)
.LBB103:
	.loc 6 2402 0
	movq	-8(%rbp), %rax
	movq	%rax, %rcx
.LEHB57:
	call	_ZNSt8_Rb_treeIcSt4pairIKciESt10_Select1stIS2_ESt4lessIcESaIS2_EE6_S_keyEPKSt13_Rb_tree_nodeIS2_E
	movq	%rax, %rcx
	leaq	-32(%rbp), %rax
	movq	40(%rbp), %rdx
	movq	%rcx, %r9
	movq	%rdx, %r8
	movq	32(%rbp), %rdx
	movq	%rax, %rcx
	call	_ZNSt8_Rb_treeIcSt4pairIKciESt10_Select1stIS2_ESt4lessIcESaIS2_EE29_M_get_insert_hint_unique_posESt23_Rb_tree_const_iteratorIS2_ERS1_
	.loc 6 2404 0
	movq	-24(%rbp), %rax
	testq	%rax, %rax
	je	.L440
	.loc 6 2405 0
	movq	-24(%rbp), %rdx
	movq	-32(%rbp), %rax
	movq	-8(%rbp), %rcx
	movq	%rcx, %r9
	movq	%rdx, %r8
	movq	%rax, %rdx
	movq	32(%rbp), %rcx
	call	_ZNSt8_Rb_treeIcSt4pairIKciESt10_Select1stIS2_ESt4lessIcESaIS2_EE14_M_insert_nodeEPSt18_Rb_tree_node_baseSA_PSt13_Rb_tree_nodeIS2_E
.LEHE57:
	jmp	.L447
.L440:
	.loc 6 2407 0
	movq	-8(%rbp), %rax
	movq	%rax, %rdx
	movq	32(%rbp), %rcx
	call	_ZNSt8_Rb_treeIcSt4pairIKciESt10_Select1stIS2_ESt4lessIcESaIS2_EE12_M_drop_nodeEPSt13_Rb_tree_nodeIS2_E
	.loc 6 2408 0
	movq	-32(%rbp), %rdx
	leaq	-16(%rbp), %rax
	movq	%rax, %rcx
	call	_ZNSt17_Rb_tree_iteratorISt4pairIKciEEC1EPSt18_Rb_tree_node_base
	movq	-16(%rbp), %rax
	jmp	.L447
.L445:
.LBE103:
	.loc 6 2410 0
	movq	%rax, %rcx
	call	__cxa_begin_catch
	.loc 6 2412 0
	movq	-8(%rbp), %rax
	movq	%rax, %rdx
	movq	32(%rbp), %rcx
	call	_ZNSt8_Rb_treeIcSt4pairIKciESt10_Select1stIS2_ESt4lessIcESaIS2_EE12_M_drop_nodeEPSt13_Rb_tree_nodeIS2_E
.LEHB58:
	.loc 6 2413 0
	call	__cxa_rethrow
.LEHE58:
.L446:
	movq	%rax, %rbx
	.loc 6 2410 0
	call	__cxa_end_catch
	movq	%rbx, %rax
	movq	%rax, %rcx
.LEHB59:
	call	_Unwind_Resume
.LEHE59:
.L447:
	.loc 6 2415 0
	addq	$64, %rsp
	popq	%rbx
	.cfi_restore 3
	popq	%rsi
	.cfi_restore 4
	popq	%rbp
	.cfi_restore 6
	.cfi_def_cfa 7, 24
	ret
	.cfi_endproc
.LFE3741:
	.seh_handler	__gxx_personality_seh0, @unwind, @except
	.seh_handlerdata
	.align 4
.LLSDA3741:
	.byte	0xff
	.byte	0x9b
	.uleb128 .LLSDATT3741-.LLSDATTD3741
.LLSDATTD3741:
	.byte	0x1
	.uleb128 .LLSDACSE3741-.LLSDACSB3741
.LLSDACSB3741:
	.uleb128 .LEHB56-.LFB3741
	.uleb128 .LEHE56-.LEHB56
	.uleb128 0
	.uleb128 0
	.uleb128 .LEHB57-.LFB3741
	.uleb128 .LEHE57-.LEHB57
	.uleb128 .L445-.LFB3741
	.uleb128 0x1
	.uleb128 .LEHB58-.LFB3741
	.uleb128 .LEHE58-.LEHB58
	.uleb128 .L446-.LFB3741
	.uleb128 0
	.uleb128 .LEHB59-.LFB3741
	.uleb128 .LEHE59-.LEHB59
	.uleb128 0
	.uleb128 0
.LLSDACSE3741:
	.byte	0x1
	.byte	0
	.align 4
	.long	0

.LLSDATT3741:
	.section	.text$_ZNSt8_Rb_treeIcSt4pairIKciESt10_Select1stIS2_ESt4lessIcESaIS2_EE22_M_emplace_hint_uniqueIJRKSt21piecewise_construct_tSt5tupleIJOcEESD_IJEEEEESt17_Rb_tree_iteratorIS2_ESt23_Rb_tree_const_iteratorIS2_EDpOT_,"x"
	.linkonce discard
	.seh_endproc
	.section	.text$_ZNSt10unique_ptrI7ExprASTSt14default_deleteIS0_EE5resetEPS0_,"x"
	.linkonce discard
	.align 2
	.globl	_ZNSt10unique_ptrI7ExprASTSt14default_deleteIS0_EE5resetEPS0_
	.def	_ZNSt10unique_ptrI7ExprASTSt14default_deleteIS0_EE5resetEPS0_;	.scl	2;	.type	32;	.endef
	.seh_proc	_ZNSt10unique_ptrI7ExprASTSt14default_deleteIS0_EE5resetEPS0_
_ZNSt10unique_ptrI7ExprASTSt14default_deleteIS0_EE5resetEPS0_:
.LFB3746:
	.loc 13 371 0
	.cfi_startproc
	pushq	%rbp
	.seh_pushreg	%rbp
	.cfi_def_cfa_offset 16
	.cfi_offset 6, -16
	movq	%rsp, %rbp
	.seh_setframe	%rbp, 0
	.cfi_def_cfa_register 6
	subq	$32, %rsp
	.seh_stackalloc	32
	.seh_endprologue
	movq	%rcx, 16(%rbp)
	movq	%rdx, 24(%rbp)
	.loc 13 374 0
	movq	16(%rbp), %rax
	movq	%rax, %rcx
	call	_ZNSt15__uniq_ptr_implI7ExprASTSt14default_deleteIS0_EE6_M_ptrEv
	movq	%rax, %rcx
	leaq	24(%rbp), %rax
	movq	%rax, %rdx
	call	_ZSt4swapIP7ExprASTENSt9enable_ifIXsrSt6__and_IJSt6__not_ISt15__is_tuple_likeIT_EESt21is_move_constructibleIS6_ESt18is_move_assignableIS6_EEE5valueEvE4typeERS6_SG_
	.loc 13 375 0
	movq	24(%rbp), %rax
	testq	%rax, %rax
	je	.L450
	.loc 13 376 0
	movq	16(%rbp), %rcx
	call	_ZNSt10unique_ptrI7ExprASTSt14default_deleteIS0_EE11get_deleterEv
	movq	%rax, %rcx
	movq	24(%rbp), %rax
	movq	%rax, %rdx
	call	_ZNKSt14default_deleteI7ExprASTEclEPS0_
.L450:
	.loc 13 377 0
	nop
	addq	$32, %rsp
	popq	%rbp
	.cfi_restore 6
	.cfi_def_cfa 7, 8
	ret
	.cfi_endproc
.LFE3746:
	.seh_endproc
	.section	.text$_ZSt7forwardISt10unique_ptrI7ExprASTSt14default_deleteIS1_EEEOT_RNSt16remove_referenceIS5_E4typeE,"x"
	.linkonce discard
	.globl	_ZSt7forwardISt10unique_ptrI7ExprASTSt14default_deleteIS1_EEEOT_RNSt16remove_referenceIS5_E4typeE
	.def	_ZSt7forwardISt10unique_ptrI7ExprASTSt14default_deleteIS1_EEEOT_RNSt16remove_referenceIS5_E4typeE;	.scl	2;	.type	32;	.endef
	.seh_proc	_ZSt7forwardISt10unique_ptrI7ExprASTSt14default_deleteIS1_EEEOT_RNSt16remove_referenceIS5_E4typeE
_ZSt7forwardISt10unique_ptrI7ExprASTSt14default_deleteIS1_EEEOT_RNSt16remove_referenceIS5_E4typeE:
.LFB3747:
	.loc 12 73 0
	.cfi_startproc
	pushq	%rbp
	.seh_pushreg	%rbp
	.cfi_def_cfa_offset 16
	.cfi_offset 6, -16
	movq	%rsp, %rbp
	.seh_setframe	%rbp, 0
	.cfi_def_cfa_register 6
	.seh_endprologue
	movq	%rcx, 16(%rbp)
	.loc 12 74 0
	movq	16(%rbp), %rax
	popq	%rbp
	.cfi_restore 6
	.cfi_def_cfa 7, 8
	ret
	.cfi_endproc
.LFE3747:
	.seh_endproc
	.section	.text$_ZNSt10unique_ptrI13BinaryExprASTSt14default_deleteIS0_EEC1IS2_vEEPS0_,"x"
	.linkonce discard
	.align 2
	.globl	_ZNSt10unique_ptrI13BinaryExprASTSt14default_deleteIS0_EEC1IS2_vEEPS0_
	.def	_ZNSt10unique_ptrI13BinaryExprASTSt14default_deleteIS0_EEC1IS2_vEEPS0_;	.scl	2;	.type	32;	.endef
	.seh_proc	_ZNSt10unique_ptrI13BinaryExprASTSt14default_deleteIS0_EEC1IS2_vEEPS0_
_ZNSt10unique_ptrI13BinaryExprASTSt14default_deleteIS0_EEC1IS2_vEEPS0_:
.LFB3754:
	.loc 13 201 0
	.cfi_startproc
	.cfi_personality 0x9b,.LDFCM0
	.cfi_lsda 0x1c,.LLSDA3754
	pushq	%rbp
	.seh_pushreg	%rbp
	.cfi_def_cfa_offset 16
	.cfi_offset 6, -16
	movq	%rsp, %rbp
	.seh_setframe	%rbp, 0
	.cfi_def_cfa_register 6
	subq	$32, %rsp
	.seh_stackalloc	32
	.seh_endprologue
	movq	%rcx, 16(%rbp)
	movq	%rdx, 24(%rbp)
.LBB104:
	.loc 13 202 0
	movq	16(%rbp), %rax
	movq	24(%rbp), %rdx
	movq	%rax, %rcx
	call	_ZNSt15__uniq_ptr_implI13BinaryExprASTSt14default_deleteIS0_EEC1EPS0_
.LBE104:
	.loc 13 203 0
	nop
	addq	$32, %rsp
	popq	%rbp
	.cfi_restore 6
	.cfi_def_cfa 7, 8
	ret
	.cfi_endproc
.LFE3754:
	.seh_handler	__gxx_personality_seh0, @unwind, @except
	.seh_handlerdata
.LLSDA3754:
	.byte	0xff
	.byte	0xff
	.byte	0x1
	.uleb128 .LLSDACSE3754-.LLSDACSB3754
.LLSDACSB3754:
.LLSDACSE3754:
	.section	.text$_ZNSt10unique_ptrI13BinaryExprASTSt14default_deleteIS0_EEC1IS2_vEEPS0_,"x"
	.linkonce discard
	.seh_endproc
	.section	.text$_ZNSt15__uniq_ptr_implI13BinaryExprASTSt14default_deleteIS0_EE6_M_ptrEv,"x"
	.linkonce discard
	.align 2
	.globl	_ZNSt15__uniq_ptr_implI13BinaryExprASTSt14default_deleteIS0_EE6_M_ptrEv
	.def	_ZNSt15__uniq_ptr_implI13BinaryExprASTSt14default_deleteIS0_EE6_M_ptrEv;	.scl	2;	.type	32;	.endef
	.seh_proc	_ZNSt15__uniq_ptr_implI13BinaryExprASTSt14default_deleteIS0_EE6_M_ptrEv
_ZNSt15__uniq_ptr_implI13BinaryExprASTSt14default_deleteIS0_EE6_M_ptrEv:
.LFB3758:
	.loc 13 146 0
	.cfi_startproc
	pushq	%rbp
	.seh_pushreg	%rbp
	.cfi_def_cfa_offset 16
	.cfi_offset 6, -16
	movq	%rsp, %rbp
	.seh_setframe	%rbp, 0
	.cfi_def_cfa_register 6
	subq	$32, %rsp
	.seh_stackalloc	32
	.seh_endprologue
	movq	%rcx, 16(%rbp)
	.loc 13 146 0
	movq	16(%rbp), %rax
	movq	%rax, %rcx
	call	_ZSt3getILy0EJP13BinaryExprASTSt14default_deleteIS0_EEERNSt13tuple_elementIXT_ESt5tupleIJDpT0_EEE4typeERS8_
	addq	$32, %rsp
	popq	%rbp
	.cfi_restore 6
	.cfi_def_cfa 7, 8
	ret
	.cfi_endproc
.LFE3758:
	.seh_endproc
	.section	.text$_ZNSt10unique_ptrI13BinaryExprASTSt14default_deleteIS0_EE11get_deleterEv,"x"
	.linkonce discard
	.align 2
	.globl	_ZNSt10unique_ptrI13BinaryExprASTSt14default_deleteIS0_EE11get_deleterEv
	.def	_ZNSt10unique_ptrI13BinaryExprASTSt14default_deleteIS0_EE11get_deleterEv;	.scl	2;	.type	32;	.endef
	.seh_proc	_ZNSt10unique_ptrI13BinaryExprASTSt14default_deleteIS0_EE11get_deleterEv
_ZNSt10unique_ptrI13BinaryExprASTSt14default_deleteIS0_EE11get_deleterEv:
.LFB3759:
	.loc 13 341 0
	.cfi_startproc
	pushq	%rbp
	.seh_pushreg	%rbp
	.cfi_def_cfa_offset 16
	.cfi_offset 6, -16
	movq	%rsp, %rbp
	.seh_setframe	%rbp, 0
	.cfi_def_cfa_register 6
	subq	$32, %rsp
	.seh_stackalloc	32
	.seh_endprologue
	movq	%rcx, 16(%rbp)
	.loc 13 342 0
	movq	16(%rbp), %rax
	movq	%rax, %rcx
	call	_ZNSt15__uniq_ptr_implI13BinaryExprASTSt14default_deleteIS0_EE10_M_deleterEv
	addq	$32, %rsp
	popq	%rbp
	.cfi_restore 6
	.cfi_def_cfa 7, 8
	ret
	.cfi_endproc
.LFE3759:
	.seh_endproc
	.section	.text$_ZN13BinaryExprASTD1Ev,"x"
	.linkonce discard
	.align 2
	.globl	_ZN13BinaryExprASTD1Ev
	.def	_ZN13BinaryExprASTD1Ev;	.scl	2;	.type	32;	.endef
	.seh_proc	_ZN13BinaryExprASTD1Ev
_ZN13BinaryExprASTD1Ev:
.LFB3763:
	.loc 5 34 0
	.cfi_startproc
	pushq	%rbp
	.seh_pushreg	%rbp
	.cfi_def_cfa_offset 16
	.cfi_offset 6, -16
	movq	%rsp, %rbp
	.seh_setframe	%rbp, 0
	.cfi_def_cfa_register 6
	subq	$32, %rsp
	.seh_stackalloc	32
	.seh_endprologue
	movq	%rcx, 16(%rbp)
.LBB105:
	.loc 5 34 0
	leaq	16+_ZTV13BinaryExprAST(%rip), %rdx
	movq	16(%rbp), %rax
	movq	%rdx, (%rax)
	movq	16(%rbp), %rax
	addq	$24, %rax
	movq	%rax, %rcx
	call	_ZNSt10unique_ptrI7ExprASTSt14default_deleteIS0_EED1Ev
	movq	16(%rbp), %rax
	addq	$16, %rax
	movq	%rax, %rcx
	call	_ZNSt10unique_ptrI7ExprASTSt14default_deleteIS0_EED1Ev
	movq	16(%rbp), %rax
	movq	%rax, %rcx
	call	_ZN7ExprASTD2Ev
.LBE105:
	nop
	addq	$32, %rsp
	popq	%rbp
	.cfi_restore 6
	.cfi_def_cfa 7, 8
	ret
	.cfi_endproc
.LFE3763:
	.seh_endproc
	.section	.text$_ZN13BinaryExprASTD0Ev,"x"
	.linkonce discard
	.align 2
	.globl	_ZN13BinaryExprASTD0Ev
	.def	_ZN13BinaryExprASTD0Ev;	.scl	2;	.type	32;	.endef
	.seh_proc	_ZN13BinaryExprASTD0Ev
_ZN13BinaryExprASTD0Ev:
.LFB3764:
	.loc 5 34 0
	.cfi_startproc
	pushq	%rbp
	.seh_pushreg	%rbp
	.cfi_def_cfa_offset 16
	.cfi_offset 6, -16
	movq	%rsp, %rbp
	.seh_setframe	%rbp, 0
	.cfi_def_cfa_register 6
	subq	$32, %rsp
	.seh_stackalloc	32
	.seh_endprologue
	movq	%rcx, 16(%rbp)
	.loc 5 34 0
	movq	16(%rbp), %rcx
	call	_ZN13BinaryExprASTD1Ev
	movl	$32, %edx
	movq	16(%rbp), %rcx
	call	_ZdlPvy
	nop
	addq	$32, %rsp
	popq	%rbp
	.cfi_restore 6
	.cfi_def_cfa 7, 8
	ret
	.cfi_endproc
.LFE3764:
	.seh_endproc
	.section	.text$_ZNKSt14default_deleteI13BinaryExprASTEclEPS0_,"x"
	.linkonce discard
	.align 2
	.globl	_ZNKSt14default_deleteI13BinaryExprASTEclEPS0_
	.def	_ZNKSt14default_deleteI13BinaryExprASTEclEPS0_;	.scl	2;	.type	32;	.endef
	.seh_proc	_ZNKSt14default_deleteI13BinaryExprASTEclEPS0_
_ZNKSt14default_deleteI13BinaryExprASTEclEPS0_:
.LFB3760:
	.loc 13 72 0
	.cfi_startproc
	pushq	%rbp
	.seh_pushreg	%rbp
	.cfi_def_cfa_offset 16
	.cfi_offset 6, -16
	movq	%rsp, %rbp
	.seh_setframe	%rbp, 0
	.cfi_def_cfa_register 6
	subq	$32, %rsp
	.seh_stackalloc	32
	.seh_endprologue
	movq	%rcx, 16(%rbp)
	movq	%rdx, 24(%rbp)
	.loc 13 78 0
	cmpq	$0, 24(%rbp)
	je	.L462
	.loc 13 78 0 is_stmt 0 discriminator 1
	movq	24(%rbp), %rax
	movq	(%rax), %rax
	addq	$8, %rax
	movq	(%rax), %rax
	movq	24(%rbp), %rdx
	movq	%rdx, %rcx
	call	*%rax
.LVL14:
.L462:
	.loc 13 79 0 is_stmt 1
	nop
	addq	$32, %rsp
	popq	%rbp
	.cfi_restore 6
	.cfi_def_cfa 7, 8
	ret
	.cfi_endproc
.LFE3760:
	.seh_endproc
	.section	.text$_ZNSt10unique_ptrI13BinaryExprASTSt14default_deleteIS0_EE7releaseEv,"x"
	.linkonce discard
	.align 2
	.globl	_ZNSt10unique_ptrI13BinaryExprASTSt14default_deleteIS0_EE7releaseEv
	.def	_ZNSt10unique_ptrI13BinaryExprASTSt14default_deleteIS0_EE7releaseEv;	.scl	2;	.type	32;	.endef
	.seh_proc	_ZNSt10unique_ptrI13BinaryExprASTSt14default_deleteIS0_EE7releaseEv
_ZNSt10unique_ptrI13BinaryExprASTSt14default_deleteIS0_EE7releaseEv:
.LFB3765:
	.loc 13 357 0
	.cfi_startproc
	pushq	%rbp
	.seh_pushreg	%rbp
	.cfi_def_cfa_offset 16
	.cfi_offset 6, -16
	movq	%rsp, %rbp
	.seh_setframe	%rbp, 0
	.cfi_def_cfa_register 6
	subq	$48, %rsp
	.seh_stackalloc	48
	.seh_endprologue
	movq	%rcx, 16(%rbp)
	.loc 13 359 0
	movq	16(%rbp), %rcx
	call	_ZNKSt10unique_ptrI13BinaryExprASTSt14default_deleteIS0_EE3getEv
	movq	%rax, -8(%rbp)
	.loc 13 360 0
	movq	16(%rbp), %rax
	movq	%rax, %rcx
	call	_ZNSt15__uniq_ptr_implI13BinaryExprASTSt14default_deleteIS0_EE6_M_ptrEv
	movq	$0, (%rax)
	.loc 13 361 0
	movq	-8(%rbp), %rax
	.loc 13 362 0
	addq	$48, %rsp
	popq	%rbp
	.cfi_restore 6
	.cfi_def_cfa 7, 8
	ret
	.cfi_endproc
.LFE3765:
	.seh_endproc
